(lp1
((dp2
S'use_dropout'
p3
I01
sS'use_batchnorm'
p4
I01
sS'init'
p5
S'glorot_normal'
p6
sS'reg_factor'
p7
F3.6752294830924977e-05
sS'dropout_param'
p8
F0.039752420055025835
s(dp9
S'loss'
p10
S'categorical_crossentropy'
p11
sS'optimizer'
p12
S'sgd'
p13
sS'decay'
p14
F0.0003806722554316747
sS'nesterov'
p15
I01
sS'batch_size'
p16
I256
sS'metrics'
p17
(lp18
S'accuracy'
p19
asS'lr'
p20
F0.0079907325868044526
sS'nb_epochs'
p21
I5
sS'momentum'
p22
F0.88215012205370069
s(dp23
S'acc'
p24
(lp25
cnumpy.core.multiarray
scalar
p26
(cnumpy
dtype
p27
(S'f8'
I0
I1
tRp28
(I3
S'<'
NNNI-1
I-1
I0
tbS'\xe8|\xb8\x1a\xc2i\xe6?'
tRp29
ag26
(g28
S'\xe1\xd93[\xbe\xc8\xeb?'
tRp30
ag26
(g28
S'\x82\xfc\x92at\xa6\xec?'
tRp31
ag26
(g28
S'\x11\xb6;<\xa29\xed?'
tRp32
ag26
(g28
S'\xb96\x959\x8d\x9e\xed?'
tRp33
asg10
(lp34
g26
(g28
S'\x06>\xb0+\xf7*\xef?'
tRp35
ag26
(g28
S'\xc0n\xdd\xad\xeb\x1c\xdd?'
tRp36
ag26
(g28
S'$\x1f\xf2G<}\xd7?'
tRp37
ag26
(g28
S'i\xc3\x1c\x91\xcd\xf9\xd3?'
tRp38
ag26
(g28
S']~4]\xe7Y\xd1?'
tRp39
asS'val_acc'
p40
(lp41
g26
(g28
S'\xab\xaa\xaa*\x84\x89\xea?'
tRp42
ag26
(g28
S'\x1f\xfa\xf9|^\x17\xeb?'
tRp43
ag26
(g28
S'\xe846{E\xde\xeb?'
tRp44
ag26
(g28
S'W\xab\x1c\xed\r\x9f\xeb?'
tRp45
ag26
(g28
S'HeJ\xf8%\xec\xeb?'
tRp46
asS'val_loss'
p47
(lp48
g26
(g28
S'\x1d\xac\x0cY\x90\xee\xe1?'
tRp49
ag26
(g28
S'\x8aR\x0f\xc2\xed\xff\xde?'
tRp50
ag26
(g28
S'`<\xdbZzj\xdb?'
tRp51
ag26
(g28
S'_P|\x8c\xd1\x8c\xdc?'
tRp52
ag26
(g28
S'd\x1d\x1e\xaf\xfb\xaf\xda?'
tRp53
as(dp54
S'verbose'
p55
I1
sS'nb_epoch'
p56
I5
sg16
I256
sg17
(lp57
g10
ag24
aS'val_loss'
p58
aS'val_acc'
p59
asS'nb_sample'
p60
I47812
sS'do_validation'
p61
I01
sg26
(g28
S'f\x1a\xd1\x89,a\xda?'
tRp62
g26
(g28
S"\xa5\xd3'\xc9E\x04\xec?"
tRp63
tp64
a((dp65
S'use_dropout'
p66
I01
sS'use_batchnorm'
p67
I01
sS'init'
p68
S'glorot_normal'
p69
sS'reg_factor'
p70
F3.3405765256037207e-06
sS'dropout_param'
p71
F0.057248412477128384
s(dp72
S'loss'
p73
S'categorical_crossentropy'
p74
sS'optimizer'
p75
S'sgd'
p76
sS'decay'
p77
F0.00011535739285736163
sS'nesterov'
p78
I01
sS'batch_size'
p79
I256
sS'metrics'
p80
(lp81
S'accuracy'
p82
asS'lr'
p83
F0.033379883470478079
sS'nb_epochs'
p84
I5
sS'momentum'
p85
F0.81620085486711591
s(dp86
S'acc'
p87
(lp88
g26
(g28
S'rZ\xd1\xc1(\xe1\xe7?'
tRp89
ag26
(g28
S'\x0cu\xd7Tf6\xec?'
tRp90
ag26
(g28
S'\xd1\xc3\x19}\x8e\xf3\xec?'
tRp91
ag26
(g28
S'\xfc\xe9C\x8d\xab\x96\xed?'
tRp92
ag26
(g28
S'\x9cI\x83Nl\xef\xed?'
tRp93
asg73
(lp94
g26
(g28
S'#5\xff\x14;\xb8\xe9?'
tRp95
ag26
(g28
S'\xfa\xa1\x05\xa9\xa7\xdb\xd8?'
tRp96
ag26
(g28
S'g\xd5T7\xc2\xe9\xd3?'
tRp97
ag26
(g28
S'\xe92\xe7\x05WW\xd0?'
tRp98
ag26
(g28
S'\x1a\t\x87\xcf\xbb\xb4\xcb?'
tRp99
asS'val_acc'
p100
(lp101
g26
(g28
S'e\xc8\x01\xfb\xa4\xa0\xea?'
tRp102
ag26
(g28
S'\xd7\x16\xa6)kP\xeb?'
tRp103
ag26
(g28
S'\xf6\x8a\xbc\x97g\x1a\xec?'
tRp104
ag26
(g28
S'\xad\xb7\x1c\xecZ\xe1\xeb?'
tRp105
ag26
(g28
S'\xa3\x01^\xc1\x07\x1f\xec?'
tRp106
asS'val_loss'
p107
(lp108
g26
(g28
S'\x1f\xc1X\xee\xdb\xa8\xe0?'
tRp109
ag26
(g28
S'\x87\x0c\xfcQ\xf3\xf3\xdd?'
tRp110
ag26
(g28
S'\x8aR\x0f"\xf4\x0b\xda?'
tRp111
ag26
(g28
S'\xcb\x84<8i\x9d\xdb?'
tRp112
ag26
(g28
S'\x8f\xe2"l\xa7K\xdb?'
tRp113
as(dp114
S'verbose'
p115
I1
sS'nb_epoch'
p116
I5
sg79
I256
sg80
(lp117
g73
ag87
aS'val_loss'
p118
aS'val_acc'
p119
asS'nb_sample'
p120
I47812
sS'do_validation'
p121
I01
sg26
(g28
S'\xd5<4U\x8fg\xdc?'
tRp122
g26
(g28
S')M[u5\xdd\xeb?'
tRp123
tp124
a((dp125
S'use_dropout'
p126
I01
sS'use_batchnorm'
p127
I01
sS'init'
p128
S'glorot_normal'
p129
sS'reg_factor'
p130
F2.8318879425114851e-06
sS'dropout_param'
p131
F0.018592866759373355
s(dp132
S'loss'
p133
S'categorical_crossentropy'
p134
sS'optimizer'
p135
S'sgd'
p136
sS'decay'
p137
F0.00055460623862258732
sS'nesterov'
p138
I01
sS'batch_size'
p139
I256
sS'metrics'
p140
(lp141
S'accuracy'
p142
asS'lr'
p143
F0.023028570530689331
sS'nb_epochs'
p144
I5
sS'momentum'
p145
F0.85758801046471289
s(dp146
S'acc'
p147
(lp148
g26
(g28
S'Ti\xea\x0f:9\xe8?'
tRp149
ag26
(g28
S'>\x96i~An\xec?'
tRp150
ag26
(g28
S'\x8b\x93G\xb2I?\xed?'
tRp151
ag26
(g28
S'\x80\x1ep\xbd\xc1\xca\xed?'
tRp152
ag26
(g28
S'\xde\x18\xa7&\xd6A\xee?'
tRp153
asg133
(lp154
g26
(g28
S'\xae\xab\xb0W{\x81\xe8?'
tRp155
ag26
(g28
S'\xa1\xe1\xa9Dh\xb9\xd7?'
tRp156
ag26
(g28
S'b\x10\xf3K\xb2O\xd2?'
tRp157
ag26
(g28
S'0\xa1\xba\x96\xdc\x00\xce?'
tRp158
ag26
(g28
S',\xbf\xc2\x0b\xade\xc8?'
tRp159
asS'val_acc'
p160
(lp161
g26
(g28
S'4B"\x19z\x9a\xea?'
tRp162
ag26
(g28
S'\xec\xe8\x9e\xfed\xd0\xeb?'
tRp163
ag26
(g28
S'$\x8e\xfaP\xa5\xd9\xeb?'
tRp164
ag26
(g28
S'\xfc\x0e\tDtS\xec?'
tRp165
ag26
(g28
S'\x1c>\xb7\x85]+\xec?'
tRp166
asS'val_loss'
p167
(lp168
g26
(g28
S'\xf3L\x83\xbb\xe5N\xe1?'
tRp169
ag26
(g28
S'd\x9f\x14\x94F?\xdb?'
tRp170
ag26
(g28
S'\x83\xda\x89S\xfe1\xdb?'
tRp171
ag26
(g28
S'\xe1\x83\x0f^[J\xd9?'
tRp172
ag26
(g28
S'\x0f\xc0\xeee\x16\xf3\xd9?'
tRp173
as(dp174
S'verbose'
p175
I1
sS'nb_epoch'
p176
I5
sg139
I256
sg140
(lp177
g133
ag147
aS'val_loss'
p178
aS'val_acc'
p179
asS'nb_sample'
p180
I47812
sS'do_validation'
p181
I01
sg26
(g28
S'\xad\xf8\x0f\xb6\xa5i\xd9?'
tRp182
g26
(g28
S'\xc9w\x85\x80\xb9Y\xec?'
tRp183
tp184
a((dp185
S'use_dropout'
p186
I01
sS'use_batchnorm'
p187
I01
sS'init'
p188
S'glorot_normal'
p189
sS'reg_factor'
p190
F3.0402730466697148e-05
sS'dropout_param'
p191
F0.020999473478804934
s(dp192
S'loss'
p193
S'categorical_crossentropy'
p194
sS'optimizer'
p195
S'sgd'
p196
sS'decay'
p197
F0.0095535058273904742
sS'nesterov'
p198
I01
sS'batch_size'
p199
I256
sS'metrics'
p200
(lp201
S'accuracy'
p202
asS'lr'
p203
F0.018048275653976899
sS'nb_epochs'
p204
I5
sS'momentum'
p205
F0.83020699369844764
s(dp206
S'acc'
p207
(lp208
g26
(g28
S'\xa5\xb6\xb0\xf5#\xc1\xe6?'
tRp209
ag26
(g28
S'U\xdecy\xed\xb0\xeb?'
tRp210
ag26
(g28
S'\xa6;\xcf\x14\xc5n\xec?'
tRp211
ag26
(g28
S'Epf\xc1\x89\xe0\xec?'
tRp212
ag26
(g28
S"\xd6\x1d?\xad\xa4'\xed?"
tRp213
asg193
(lp214
g26
(g28
S'\xfe\x01\x93\x10cB\xee?'
tRp215
ag26
(g28
S'5w\xe2\xd2%\x1f\xde?'
tRp216
ag26
(g28
S'56-1\xc5M\xd9?'
tRp217
ag26
(g28
S'\x91/C\xafJ\xa6\xd6?'
tRp218
ag26
(g28
S'>\xcd\xe1\xe1\xfd\xe8\xd4?'
tRp219
asS'val_acc'
p220
(lp221
g26
(g28
S'v/\xe7B\xcd\\\xea?'
tRp222
ag26
(g28
S'\xa4o\xb3\x94\xf4,\xeb?'
tRp223
ag26
(g28
S'\xfb\xb0g\xf8%\xec\xeb?'
tRp224
ag26
(g28
S'\x1c\x7f2\x88vd\xeb?'
tRp225
ag26
(g28
S'\xa6Gq\xf1\xe6\x07\xec?'
tRp226
asS'val_loss'
p227
(lp228
g26
(g28
S'e\xd0\xdb\x0e\x8f\x83\xe2?'
tRp229
ag26
(g28
S'`\xf3\x85$\x88\xfd\xdf?'
tRp230
ag26
(g28
S'\\\xd1\xc7M\r\xeb\xdb?'
tRp231
ag26
(g28
S'A>\xf43\x04r\xde?'
tRp232
ag26
(g28
S'\x04\xa4\xb4\xfb\x1a\x98\xda?'
tRp233
as(dp234
S'verbose'
p235
I1
sS'nb_epoch'
p236
I5
sg199
I256
sg200
(lp237
g193
ag207
aS'val_loss'
p238
aS'val_acc'
p239
asS'nb_sample'
p240
I47812
sS'do_validation'
p241
I01
sg26
(g28
S'\x18I+%%\x0c\xdb?'
tRp242
g26
(g28
S'\xe4\x16\x0e\x93\xfb\xfe\xeb?'
tRp243
tp244
a((dp245
S'use_dropout'
p246
I01
sS'use_batchnorm'
p247
I01
sS'init'
p248
S'glorot_normal'
p249
sS'reg_factor'
p250
F4.7365428547039209e-05
sS'dropout_param'
p251
F0.021358748597675226
s(dp252
S'loss'
p253
S'categorical_crossentropy'
p254
sS'optimizer'
p255
S'sgd'
p256
sS'decay'
p257
F0.0001457890254686141
sS'nesterov'
p258
I01
sS'batch_size'
p259
I256
sS'metrics'
p260
(lp261
S'accuracy'
p262
asS'lr'
p263
F0.013358757981654219
sS'nb_epochs'
p264
I5
sS'momentum'
p265
F0.92712527839505288
s(dp266
S'acc'
p267
(lp268
g26
(g28
S'\xbb\x9f>t.\xb7\xe7?'
tRp269
ag26
(g28
S'WJ\xc1\x0f W\xec?'
tRp270
ag26
(g28
S'i\xfdH\x10\xe6*\xed?'
tRp271
ag26
(g28
S'\xbf0\xdc\xc7?\xbe\xed?'
tRp272
ag26
(g28
S'Q\x19\x02\xde\x80/\xee?'
tRp273
asg253
(lp274
g26
(g28
S'Q\x06\xa9\xcc\x97\xe3\xea?'
tRp275
ag26
(g28
S'J\xdbQ\xd2\x18S\xd9?'
tRp276
ag26
(g28
S'\xcd\x86\x8a|(\x11\xd4?'
tRp277
ag26
(g28
S'\xfb\xdf\x06\x1f\xfb\x91\xd0?'
tRp278
ag26
(g28
S'\xec\xaf\n\x1d\x96\xd3\xcb?'
tRp279
asS'val_acc'
p280
(lp281
g26
(g28
S'n\xdf\xa3\xd7\x90\xc2\xea?'
tRp282
ag26
(g28
S'\xa9L\t_\x89\x1d\xeb?'
tRp283
ag26
(g28
S'\xafN_&\xec\x9b\xec?'
tRp284
ag26
(g28
S'\xc9\xf5\xd31jd\xec?'
tRp285
ag26
(g28
S'\x8aJ5\xae\x97\xb4\xec?'
tRp286
asS'val_loss'
p287
(lp288
g26
(g28
S'\xd1\xcf\xe7u\t(\xe1?'
tRp289
ag26
(g28
S'>\xf8\xe0Cq]\xdf?'
tRp290
ag26
(g28
S'D\x02\x11\x7f\xc7\n\xd7?'
tRp291
ag26
(g28
S'\xf4\x817`T\xce\xd8?'
tRp292
ag26
(g28
S'\xab\xa2\xd0\x96\x95K\xd7?'
tRp293
as(dp294
S'verbose'
p295
I1
sS'nb_epoch'
p296
I5
sg259
I256
sg260
(lp297
g253
ag267
aS'val_loss'
p298
aS'val_acc'
p299
asS'nb_sample'
p300
I47812
sS'do_validation'
p301
I01
sg26
(g28
S'Z\xc5\x18\x11\x821\xd7?'
tRp302
g26
(g28
S'\x82\x99F4\x9c\x99\xec?'
tRp303
tp304
a((dp305
S'use_dropout'
p306
I01
sS'use_batchnorm'
p307
I01
sS'init'
p308
S'glorot_normal'
p309
sS'reg_factor'
p310
F2.2826606349862973e-05
sS'dropout_param'
p311
F0.02022154978376817
s(dp312
S'loss'
p313
S'categorical_crossentropy'
p314
sS'optimizer'
p315
S'sgd'
p316
sS'decay'
p317
F0.00079133151237526748
sS'nesterov'
p318
I01
sS'batch_size'
p319
I256
sS'metrics'
p320
(lp321
S'accuracy'
p322
asS'lr'
p323
F0.052055054275046635
sS'nb_epochs'
p324
I5
sS'momentum'
p325
F0.80461700962284088
s(dp326
S'acc'
p327
(lp328
g26
(g28
S'\x12\x11\xd3qM\xe0\xe7?'
tRp329
ag26
(g28
S'-eL\x819s\xec?'
tRp330
ag26
(g28
S'\xae\xc5\x92K\xc5D\xed?'
tRp331
ag26
(g28
S'\x91\x0b$=\x9c\xd1\xed?'
tRp332
asg313
(lp333
g26
(g28
S'?\xeb\x98\x0c\xb5\xe1\xe9?'
tRp334
ag26
(g28
S'C\x04\t\x8b\x90-\xd8?'
tRp335
ag26
(g28
S'\x07\x0e\xc1\xca\xff\xbf\xd2?'
tRp336
ag26
(g28
S'\xbbh\xc6\xf0`l\xce?'
tRp337
asS'val_acc'
p338
(lp339
g26
(g28
S'\x1bVE\x011\xc7\xea?'
tRp340
ag26
(g28
S'#\xa2\x9b\x02>9\xec?'
tRp341
ag26
(g28
S'/,+\xe0\xdc\x18\xec?'
tRp342
ag26
(g28
S'\xf1\xfa\xa8\xcd\xd2)\xec?'
tRp343
asS'val_loss'
p344
(lp345
g26
(g28
S'\xbb\x9fM\xb5\xa7\xe8\xe0?'
tRp346
ag26
(g28
S'\xd1Q\xdeZ\xa5I\xda?'
tRp347
ag26
(g28
S'\xd0 \x17`vn\xda?'
tRp348
ag26
(g28
S'z \xde\x9e\xa0:\xdb?'
tRp349
as(dp350
S'verbose'
p351
I1
sS'nb_epoch'
p352
I5
sg319
I256
sg320
(lp353
g313
ag327
aS'val_loss'
p354
aS'val_acc'
p355
asS'nb_sample'
p356
I47812
sS'do_validation'
p357
I01
sg26
(g28
S'\xbb\x04k\xc8\xe7\xbc\xda?'
tRp358
g26
(g28
S'\xba\xfe\xf0\x0e\xe3\x10\xec?'
tRp359
tp360
a((dp361
S'use_dropout'
p362
I01
sS'use_batchnorm'
p363
I01
sS'init'
p364
S'glorot_normal'
p365
sS'reg_factor'
p366
F2.1361998872080949e-06
sS'dropout_param'
p367
F0.19528308640853315
s(dp368
S'loss'
p369
S'categorical_crossentropy'
p370
sS'optimizer'
p371
S'sgd'
p372
sS'decay'
p373
F0.00021178105615090554
sS'nesterov'
p374
I01
sS'batch_size'
p375
I256
sS'metrics'
p376
(lp377
S'accuracy'
p378
asS'lr'
p379
F0.0085084687640887852
sS'nb_epochs'
p380
I5
sS'momentum'
p381
F0.91115834116986005
s(dp382
S'acc'
p383
(lp384
g26
(g28
S'\x8a\xb9\xf9\x94\xb6\xa3\xe4?'
tRp385
ag26
(g28
S'\xef\xb1L\x93\xc2s\xeb?'
tRp386
ag26
(g28
S'\xc4j\xb7\xac\xdeS\xec?'
tRp387
ag26
(g28
S'\xe5\x16\xc3{,\xd3\xec?'
tRp388
ag26
(g28
S'\xfb\xffP\xfa\x87#\xed?'
tRp389
asg369
(lp390
g26
(g28
S'\xe9\xfbn\xe2\xd4\xc4\xf1?'
tRp391
ag26
(g28
S'#\xa3\xef\xdbr*\xde?'
tRp392
ag26
(g28
S'B\xf3B\xeaFr\xd8?'
tRp393
ag26
(g28
S'\xb4Z\x05\xc6\x18\xec\xd4?'
tRp394
ag26
(g28
S'd\xfa\xe5\x8e\x90\xa8\xd2?'
tRp395
asS'val_acc'
p396
(lp397
g26
(g28
S'c\xbb\x8fY\xfd\xf6\xea?'
tRp398
ag26
(g28
S'q\x19\xf0\t0\xdb\xeb?'
tRp399
ag26
(g28
S'\xc5EX8\xa9H\xec?'
tRp400
ag26
(g28
S'\xb6}\x8f>\xe8,\xec?'
tRp401
ag26
(g28
S'/m\xa6bIM\xec?'
tRp402
asS'val_loss'
p403
(lp404
g26
(g28
S'l\x07\xe6:G\xb9\xe0?'
tRp405
ag26
(g28
S'\xfb.q\x93p\x90\xdb?'
tRp406
ag26
(g28
S'\xb2\xd5\xedXCE\xd9?'
tRp407
ag26
(g28
S'\xcc\xee\xa4A\xb1\xe6\xd8?'
tRp408
ag26
(g28
S'G\xf7\xf4\x04\x95-\xd9?'
tRp409
as(dp410
S'verbose'
p411
I1
sS'nb_epoch'
p412
I5
sg375
I256
sg376
(lp413
g369
ag383
aS'val_loss'
p414
aS'val_acc'
p415
asS'nb_sample'
p416
I47812
sS'do_validation'
p417
I01
sg26
(g28
S'!\xea\xfd\xe0\xe2m\xd9?'
tRp418
g26
(g28
S'\xaa\xa5o\xe5+9\xec?'
tRp419
tp420
a((dp421
S'use_dropout'
p422
I01
sS'use_batchnorm'
p423
I01
sS'init'
p424
S'glorot_normal'
p425
sS'reg_factor'
p426
F1.5219532162288515e-06
sS'dropout_param'
p427
F0.020314093366598597
s(dp428
S'loss'
p429
S'categorical_crossentropy'
p430
sS'optimizer'
p431
S'sgd'
p432
sS'decay'
p433
F0.0017341193284038639
sS'nesterov'
p434
I01
sS'batch_size'
p435
I256
sS'metrics'
p436
(lp437
S'accuracy'
p438
asS'lr'
p439
F0.0064992672636200342
sS'nb_epochs'
p440
I5
sS'momentum'
p441
F0.89603866522722486
s(dp442
S'acc'
p443
(lp444
g26
(g28
S'G7[\x8dZ<\xe6?'
tRp445
ag26
(g28
S'R\x10\xe6\xca^\x96\xeb?'
tRp446
ag26
(g28
S'wM\x8f\xcd\xd1|\xec?'
tRp447
ag26
(g28
S'l\x0f0\xbc\xb0\x04\xed?'
tRp448
ag26
(g28
S'\x8bv\xb1\xa2\xf2o\xed?'
tRp449
asg429
(lp450
g26
(g28
S'\xd3\xb4\x95\x92\xd3\xcf\xef?'
tRp451
ag26
(g28
S'nk\xe8\x1c$M\xde?'
tRp452
ag26
(g28
S"\x1do|\xae'\xfa\xd7?"
tRp453
ag26
(g28
S'\xa8\x19\xf2\x88iz\xd4?'
tRp454
ag26
(g28
S'>\xb3\xff\xfd\xff\xdc\xd1?'
tRp455
asS'val_acc'
p456
(lp457
g26
(g28
S'\x16\xff\xd2\xc5\xecN\xea?'
tRp458
ag26
(g28
S'?j#A\xb4#\xeb?'
tRp459
ag26
(g28
S'W\xec\x97oz\xd3\xeb?'
tRp460
ag26
(g28
S')\xe9Y\xb6<\x14\xec?'
tRp461
ag26
(g28
S'\x99O\x8c \x133\xec?'
tRp462
asS'val_loss'
p463
(lp464
g26
(g28
S'!\x8dO\xcdR]\xe3?'
tRp465
ag26
(g28
S'R\x95%TW/\xe0?'
tRp466
ag26
(g28
S'\xcbSu}\x1b\xad\xdc?'
tRp467
ag26
(g28
S'*\x12G\xddJ6\xda?'
tRp468
ag26
(g28
S'\xeaI\x82\x90\xee\xdf\xd9?'
tRp469
as(dp470
S'verbose'
p471
I1
sS'nb_epoch'
p472
I5
sg435
I256
sg436
(lp473
g429
ag443
aS'val_loss'
p474
aS'val_acc'
p475
asS'nb_sample'
p476
I47812
sS'do_validation'
p477
I01
sg26
(g28
S'O8e\x8a6\xcf\xda?'
tRp478
g26
(g28
S'T\xa6\xaa\x9d\xdd\x03\xec?'
tRp479
tp480
a((dp481
S'use_dropout'
p482
I01
sS'use_batchnorm'
p483
I01
sS'init'
p484
S'glorot_normal'
p485
sS'reg_factor'
p486
F4.2719605154203802e-05
sS'dropout_param'
p487
F0.043480650510829839
s(dp488
S'loss'
p489
S'categorical_crossentropy'
p490
sS'optimizer'
p491
S'sgd'
p492
sS'decay'
p493
F0.0093040330186858634
sS'nesterov'
p494
I01
sS'batch_size'
p495
I256
sS'metrics'
p496
(lp497
S'accuracy'
p498
asS'lr'
p499
F0.038683474193195219
sS'nb_epochs'
p500
I5
sS'momentum'
p501
F0.82201231244544215
s(dp502
S'acc'
p503
(lp504
g26
(g28
S'Di\xdd\x9e\x88\xa5\xe7?'
tRp505
ag26
(g28
S' \x13s\x13cN\xec?'
tRp506
ag26
(g28
S'\xb1\xda-\xf35\xf9\xec?'
tRp507
ag26
(g28
S'\xb8/\x0c\x97\x12\\\xed?'
tRp508
ag26
(g28
S'\xaf\xf3\xee\xfb\xcc\xad\xed?'
tRp509
asg489
(lp510
g26
(g28
S'\xce9\x05\x0c\x90\x17\xeb?'
tRp511
ag26
(g28
S'\xd6\x00\xa9}\xd1\x0c\xda?'
tRp512
ag26
(g28
S'\xdf)mg\xf3\xd0\xd5?'
tRp513
ag26
(g28
S'\xec\xe3\xce\x04\xffm\xd3?'
tRp514
ag26
(g28
S')vc\\*\x87\xd1?'
tRp515
asS'val_acc'
p516
(lp517
g26
(g28
S'\xa9\xd2\xec\x8d\xb5H\xeb?'
tRp518
ag26
(g28
S'\x91\x89\x19\xce\x85\xe7\xeb?'
tRp519
ag26
(g28
S'\xc1\x91\xef\xb4\x89V\xec?'
tRp520
ag26
(g28
S'\xb8Q`\xf13J\xec?'
tRp521
ag26
(g28
S'\t\x89\xe4\x19!\x91\xec?'
tRp522
asS'val_loss'
p523
(lp524
g26
(g28
S'\xa5\xe5\xe2\xbb-\xf3\xdf?'
tRp525
ag26
(g28
S'\xc7V\xb7\xc3\xee\x1c\xdb?'
tRp526
ag26
(g28
S' hO\xf0\xea9\xd8?'
tRp527
ag26
(g28
S'c\xaf\xc8{\x80\xb2\xd8?'
tRp528
ag26
(g28
S'\xe7@\xfd8\x16G\xd7?'
tRp529
as(dp530
S'verbose'
p531
I1
sS'nb_epoch'
p532
I5
sg495
I256
sg496
(lp533
g489
ag503
aS'val_loss'
p534
aS'val_acc'
p535
asS'nb_sample'
p536
I47812
sS'do_validation'
p537
I01
sg26
(g28
S'at\x90(z\xa4\xd7?'
tRp538
g26
(g28
S'\x13\xac!\x1ag\x8d\xec?'
tRp539
tp540
a((dp541
S'use_dropout'
p542
I01
sS'use_batchnorm'
p543
I01
sS'init'
p544
S'glorot_normal'
p545
sS'reg_factor'
p546
F1.5202668249003304e-05
sS'dropout_param'
p547
F0.057015375500946992
s(dp548
S'loss'
p549
S'categorical_crossentropy'
p550
sS'optimizer'
p551
S'sgd'
p552
sS'decay'
p553
F0.0018378853553970586
sS'nesterov'
p554
I01
sS'batch_size'
p555
I256
sS'metrics'
p556
(lp557
S'accuracy'
p558
asS'lr'
p559
F0.041576050529932559
sS'nb_epochs'
p560
I5
sS'momentum'
p561
F0.82018906418964987
s(dp562
S'acc'
p563
(lp564
g26
(g28
S'\xea\xcb\x7f\xa1L\xe6\xe7?'
tRp565
ag26
(g28
S'ol\t\xe8\xbdm\xec?'
tRp566
ag26
(g28
S'Q&\xf3\xf7\xa6L\xed?'
tRp567
ag26
(g28
S'\xe3\xca\xaf\x90\xba\xc9\xed?'
tRp568
ag26
(g28
S'1kc^\xa6(\xee?'
tRp569
asg549
(lp570
g26
(g28
S'\xf5P\xfc{\xaa\xa9\xe9?'
tRp571
ag26
(g28
S'?\x9d\xf2`S\xf0\xd7?'
tRp572
ag26
(g28
S'\x97p\xa7\x96\x11\xd8\xd2?'
tRp573
ag26
(g28
S'\xf7\xf0\x1d\xea\x92(\xcf?'
tRp574
ag26
(g28
S'\x93d(BGN\xca?'
tRp575
asS'val_acc'
p576
(lp577
g26
(g28
S'l}\x15\xa2\xd8p\xea?'
tRp578
ag26
(g28
S'`@\xc8\xe4h?\xec?'
tRp579
ag26
(g28
S'\xc7!\x03_\xd6_\xeb?'
tRp580
ag26
(g28
S'^\xe6\x13\xa3\xcc\xa9\xec?'
tRp581
ag26
(g28
S'\x10\xed\xc8\x96\x01\x9f\xec?'
tRp582
asS'val_loss'
p583
(lp584
g26
(g28
S'\x8bw\x0f\xdf\xa8\xa6\xe1?'
tRp585
ag26
(g28
S'~\xc0\xa5p\xda(\xd9?'
tRp586
ag26
(g28
S'\x06\x889\xd6\x8c\xff\xdf?'
tRp587
ag26
(g28
S'4\x7f\xb0\x91\x94\xbe\xd6?'
tRp588
ag26
(g28
S'\xe6\xe2[\r-!\xd7?'
tRp589
as(dp590
S'verbose'
p591
I1
sS'nb_epoch'
p592
I5
sg555
I256
sg556
(lp593
g549
ag563
aS'val_loss'
p594
aS'val_acc'
p595
asS'nb_sample'
p596
I47812
sS'do_validation'
p597
I01
sg26
(g28
S'\xe9\xee\xcf\x88^\x1c\xd8?'
tRp598
g26
(g28
S'\x9dp\xca\x14\xf6\x8a\xec?'
tRp599
tp600
a((dp601
S'use_dropout'
p602
I01
sS'use_batchnorm'
p603
I01
sS'init'
p604
S'glorot_normal'
p605
sS'reg_factor'
p606
F9.2061272380540701e-06
sS'dropout_param'
p607
F0.013935627051986432
s(dp608
S'loss'
p609
S'categorical_crossentropy'
p610
sS'optimizer'
p611
S'sgd'
p612
sS'decay'
p613
F0.0011689218724139957
sS'nesterov'
p614
I01
sS'batch_size'
p615
I256
sS'metrics'
p616
(lp617
S'accuracy'
p618
asS'lr'
p619
F0.0100238293871386
sS'nb_epochs'
p620
I5
sS'momentum'
p621
F0.83934259410648526
s(dp622
S'acc'
p623
(lp624
g26
(g28
S'\xc4\xbb\x11dbn\xe6?'
tRp625
ag26
(g28
S'\xff\xdb\xe0\xed\xfe\xd1\xeb?'
tRp626
ag26
(g28
S'\xfb\x81\xbb\x9d\x9e\xb2\xec?'
tRp627
ag26
(g28
S'\xddoiu\xd4@\xed?'
tRp628
ag26
(g28
S'\xd0DcU\xdb\xaf\xed?'
tRp629
asg609
(lp630
g26
(g28
S'\xff\x8d:\x12\xfb\xf9\xee?'
tRp631
ag26
(g28
S'\xc9\x8a\xb0}\xef\xbc\xdc?'
tRp632
ag26
(g28
S'VMu\xbb\xba\xc3\xd6?'
tRp633
ag26
(g28
S'@\xdb\xf3\x86oJ\xd3?'
tRp634
ag26
(g28
S'\xae@t\x0c_\x85\xd0?'
tRp635
asS'val_acc'
p636
(lp637
g26
(g28
S'B&f8\xb5\x0f\xea?'
tRp638
ag26
(g28
S'\x86m\xdf\xc3\xd3\x15\xeb?'
tRp639
ag26
(g28
S'\xf2#\x96\x94\xf4,\xeb?'
tRp640
ag26
(g28
S'^\xde9\x0f\xbc\x01\xec?'
tRp641
ag26
(g28
S'\xdc\xe3G\x8c\xe9Q\xec?'
tRp642
asS'val_loss'
p643
(lp644
g26
(g28
S'l\x81\x02,\x88\xa5\xe3?'
tRp645
ag26
(g28
S'\x00\x86\xe3n\x9c\x8d\xe0?'
tRp646
ag26
(g28
S'A\xf5\x9e\x1dm\x89\xde?'
tRp647
ag26
(g28
S'}\xe4\xfaI\x7fa\xd9?'
tRp648
ag26
(g28
S'\xfb\xf1\xe2z\xd4\xc8\xd8?'
tRp649
as(dp650
S'verbose'
p651
I1
sS'nb_epoch'
p652
I5
sg615
I256
sg616
(lp653
g609
ag623
aS'val_loss'
p654
aS'val_acc'
p655
asS'nb_sample'
p656
I47812
sS'do_validation'
p657
I01
sg26
(g28
S'I(\xa8\xa6\x82\xb9\xd9?'
tRp658
g26
(g28
S'\x93_\x01\x1dV+\xec?'
tRp659
tp660
a((dp661
S'use_dropout'
p662
I01
sS'use_batchnorm'
p663
I01
sS'init'
p664
S'glorot_normal'
p665
sS'reg_factor'
p666
F6.737176019135189e-06
sS'dropout_param'
p667
F0.024858212372346446
s(dp668
S'loss'
p669
S'categorical_crossentropy'
p670
sS'optimizer'
p671
S'sgd'
p672
sS'decay'
p673
F0.00014027417539873855
sS'nesterov'
p674
I01
sS'batch_size'
p675
I256
sS'metrics'
p676
(lp677
S'accuracy'
p678
asS'lr'
p679
F0.046595901676038699
sS'nb_epochs'
p680
I5
sS'momentum'
p681
F0.96182952967280189
s(dp682
S'acc'
p683
(lp684
g26
(g28
S'\xd3"\x86y\x07\x93\xe7?'
tRp685
ag26
(g28
S")\xaa'$\xe8y\xec?"
tRp686
ag26
(g28
S'\x14\x0f@AGQ\xed?'
tRp687
ag26
(g28
S'17\x9f\x96\xaa\xd3\xed?'
tRp688
ag26
(g28
S'd_\xba\xc2IL\xee?'
tRp689
asg669
(lp690
g26
(g28
S')ir\x02\xc2\x11\xea?'
tRp691
ag26
(g28
S'\xc8\xc1(a\xf2)\xd7?'
tRp692
ag26
(g28
S"\x87\xb1O'c\xea\xd1?"
tRp693
ag26
(g28
S'\xcd\x1bN1\xb2\x1f\xcd?'
tRp694
ag26
(g28
S'\xdc\xa9\x954]\x9b\xc7?'
tRp695
asS'val_acc'
p696
(lp697
g26
(g28
S'\xfb\xddA\xc9\xf9\xc0\xeb?'
tRp698
ag26
(g28
S'\x1e\x90\x913\xd0\xdf\xeb?'
tRp699
ag26
(g28
S'h\n(\xc1Ta\xec?'
tRp700
ag26
(g28
S'\xc3\xf7j\x14\x95j\xec?'
tRp701
ag26
(g28
S'A\xb8\x10\x85\xf7\xaf\xec?'
tRp702
asS'val_loss'
p703
(lp704
g26
(g28
S'!\x99\x16k\xfb\xfc\xdb?'
tRp705
ag26
(g28
S'1IQ)2\xf4\xda?'
tRp706
ag26
(g28
S'\xfd\xf6z\xe838\xd8?'
tRp707
ag26
(g28
S'\x1a\xe0\x15\xfa\xce\x91\xd8?'
tRp708
ag26
(g28
S'IQ\xa9\xe6\xf3$\xd9?'
tRp709
as(dp710
S'verbose'
p711
I1
sS'nb_epoch'
p712
I5
sg675
I256
sg676
(lp713
g669
ag683
aS'val_loss'
p714
aS'val_acc'
p715
asS'nb_sample'
p716
I47812
sS'do_validation'
p717
I01
sg26
(g28
S'`q\xd3\x0b2O\xd9?'
tRp718
g26
(g28
S'\x98\x05B\xfeQ\x94\xec?'
tRp719
tp720
a((dp721
S'use_dropout'
p722
I01
sS'use_batchnorm'
p723
I01
sS'init'
p724
S'glorot_normal'
p725
sS'reg_factor'
p726
F4.5518913557234869e-06
sS'dropout_param'
p727
F0.041510418965468657
s(dp728
S'loss'
p729
S'categorical_crossentropy'
p730
sS'optimizer'
p731
S'sgd'
p732
sS'decay'
p733
F0.0011464361558020885
sS'nesterov'
p734
I01
sS'batch_size'
p735
I256
sS'metrics'
p736
(lp737
S'accuracy'
p738
asS'lr'
p739
F0.01273419652435644
sS'nb_epochs'
p740
I5
sS'momentum'
p741
F0.90668859066867546
s(dp742
S'acc'
p743
(lp744
g26
(g28
S'>y\xd3.V\xc8\xe6?'
tRp745
ag26
(g28
S'|\xe5\xb5cr\x13\xec?'
tRp746
ag26
(g28
S'u\x83\xe6\xe5\xbf\x00\xed?'
tRp747
ag26
(g28
S'\xf0@\xa8p\x12\x93\xed?'
tRp748
ag26
(g28
S'\x1b\x88=\xf7\n\x00\xee?'
tRp749
asg729
(lp750
g26
(g28
S'-\xf7[z\x03\xf3\xec?'
tRp751
ag26
(g28
S'\x8a!\x82\xe4\x88\xea\xd9?'
tRp752
ag26
(g28
S'\xec\xe0\x1a\xa9* \xd4?'
tRp753
ag26
(g28
S'\xc5\xf9\x12\xca!\x97\xd0?'
tRp754
ag26
(g28
S'\xe7>\xb7\xd4\x0e\xcc\xcb?'
tRp755
asS'val_acc'
p756
(lp757
g26
(g28
S'\xb3\xb5\x85\x89\xdc\xdf\xea?'
tRp758
ag26
(g28
S'\x92(6|\xf8\x9b\xeb?'
tRp759
ag26
(g28
S'+\xc5\x04\xfd\xb1\x12\xec?'
tRp760
ag26
(g28
S'd\xe8iJ\x00z\xec?'
tRp761
ag26
(g28
S'\xb8\x92\xdbs\xa0~\xec?'
tRp762
asS'val_loss'
p763
(lp764
g26
(g28
S'\t\xff\x13\xc1\x01\xe5\xe0?'
tRp765
ag26
(g28
S'\xe7\x0f6^\xc4w\xdc?'
tRp766
ag26
(g28
S'_P|\x8c@\xfb\xd9?'
tRp767
ag26
(g28
S'\xb6\xfb\x98y\xe8\x8f\xd7?'
tRp768
ag26
(g28
S'bE`\x92\x00\xa2\xd8?'
tRp769
as(dp770
S'verbose'
p771
I1
sS'nb_epoch'
p772
I5
sg735
I256
sg736
(lp773
g729
ag743
aS'val_loss'
p774
aS'val_acc'
p775
asS'nb_sample'
p776
I47812
sS'do_validation'
p777
I01
sg26
(g28
S'\x1c|\xb8\x8d\xba\xd1\xd8?'
tRp778
g26
(g28
S'0\xcd\x0eUQY\xec?'
tRp779
tp780
a((dp781
S'use_dropout'
p782
I01
sS'use_batchnorm'
p783
I01
sS'init'
p784
S'glorot_normal'
p785
sS'reg_factor'
p786
F1.8015117899694266e-05
sS'dropout_param'
p787
F0.018426521491494818
s(dp788
S'loss'
p789
S'categorical_crossentropy'
p790
sS'optimizer'
p791
S'sgd'
p792
sS'decay'
p793
F0.00028781585094701757
sS'nesterov'
p794
I01
sS'batch_size'
p795
I256
sS'metrics'
p796
(lp797
S'accuracy'
p798
asS'lr'
p799
F0.049931091601499826
sS'nb_epochs'
p800
I5
sS'momentum'
p801
F0.98993652597431925
s(dp802
S'acc'
p803
(lp804
g26
(g28
S'\xcd\xe4\xd5\xcdc\x8c\xe5?'
tRp805
ag26
(g28
S'"\x14\x94\xfe\xd4W\xeb?'
tRp806
ag26
(g28
S'3|)\x7f\x8c`\xec?'
tRp807
ag26
(g28
S'\x1e\xa7\x15}\x8e\xf3\xec?'
tRp808
ag26
(g28
S'\xb5\xbf\xd9\xd9wd\xed?'
tRp809
asg789
(lp810
g26
(g28
S'\xcc\xf7.O\xf8}\xf0?'
tRp811
ag26
(g28
S'\x10{\xee\x91o\xe0\xe1?'
tRp812
ag26
(g28
S'\xea\xa4\xac\xb3Ak\xde?'
tRp813
ag26
(g28
S'\xd2|\xfcC\xb3\x9a\xda?'
tRp814
ag26
(g28
S'\x19f\xb1\xd5O\xa6\xd7?'
tRp815
asS'val_acc'
p816
(lp817
g26
(g28
S'\x84\x95!g\xe1:\xea?'
tRp818
ag26
(g28
S'"\xbe\x16(\xb8\x92\xeb?'
tRp819
ag26
(g28
S'Qx\xff\xea\xa7#\xec?'
tRp820
ag26
(g28
S'k\\\x02o\xc7\x15\xec?'
tRp821
ag26
(g28
S'E\xe6\x95y\xdfb\xec?'
tRp822
asS'val_loss'
p823
(lp824
g26
(g28
S'\x1c\xb4\xe6L\xfcx\xe2?'
tRp825
ag26
(g28
S'\xa0E\x1b*\xb6\x7f\xdc?'
tRp826
ag26
(g28
S'\xe1\x05\x06\xe3T\xa0\xd9?'
tRp827
ag26
(g28
S'&\xe8\xae2M\xc9\xd9?'
tRp828
ag26
(g28
S'\xb6\xc6\xe4\x14kM\xd8?'
tRp829
as(dp830
S'verbose'
p831
I1
sS'nb_epoch'
p832
I5
sg795
I256
sg796
(lp833
g789
ag803
aS'val_loss'
p834
aS'val_acc'
p835
asS'nb_sample'
p836
I47812
sS'do_validation'
p837
I01
sg26
(g28
S'\xc0C\xec\xa3\xb5\xa6\xd8?'
tRp838
g26
(g28
S'+\x9a\x81\xecMd\xec?'
tRp839
tp840
a((dp841
S'use_dropout'
p842
I01
sS'use_batchnorm'
p843
I01
sS'init'
p844
S'glorot_normal'
p845
sS'reg_factor'
p846
F1.557888557722607e-06
sS'dropout_param'
p847
F0.019959064409742912
s(dp848
S'loss'
p849
S'categorical_crossentropy'
p850
sS'optimizer'
p851
S'sgd'
p852
sS'decay'
p853
F0.0057264054758660839
sS'nesterov'
p854
I01
sS'batch_size'
p855
I256
sS'metrics'
p856
(lp857
S'accuracy'
p858
asS'lr'
p859
F0.088641363400424431
sS'nb_epochs'
p860
I5
sS'momentum'
p861
F0.90646314037976472
s(dp862
S'acc'
p863
(lp864
g26
(g28
S'X\xaf\x95#/\x97\xdd?'
tRp865
ag26
(g28
S'\xde%\x98\xe0\xd93\xeb?'
tRp866
ag26
(g28
S'\xcbn;\xd9\xb1\x90\xec?'
tRp867
ag26
(g28
S'8\x8f1v\x1f3\xed?'
tRp868
ag26
(g28
S'|\xe8i?}\xa8\xed?'
tRp869
asg849
(lp870
g26
(g28
S'KzR\xc5\x0f\xd2\xf8?'
tRp871
ag26
(g28
S'\xaf7X\xf9]\r\xdf?'
tRp872
ag26
(g28
S'\\\xa8\xbb\xa6lw\xd6?'
tRp873
ag26
(g28
S'\xe1\xa2\xbb7\x96b\xd2?'
tRp874
ag26
(g28
S'\xe8R1Q\xa2A\xcf?'
tRp875
asS'val_acc'
p876
(lp877
g26
(g28
S'\x8dK\xe0q\x05O\xe8?'
tRp878
ag26
(g28
S'\xefW\x9fu\xb9\xb7\xeb?'
tRp879
ag26
(g28
S'^\x9d\xbe\x8cO\xcd\xeb?'
tRp880
ag26
(g28
S'\x13\xfa:8\xa9H\xec?'
tRp881
ag26
(g28
S'\xc6\xf8\x15\x98\xb4\\\xec?'
tRp882
asS'val_loss'
p883
(lp884
g26
(g28
S'\x93\x1co\xfe@\xb4\xe8?'
tRp885
ag26
(g28
S'5\xf1\xf2\x8eL\xc6\xdc?'
tRp886
ag26
(g28
S'\xc8\x05\x88\xb9\x19T\xdb?'
tRp887
ag26
(g28
S'b\x92\xa2\xb2\x8f\xd2\xd8?'
tRp888
ag26
(g28
S'\x8eG\xf3\xc7by\xd8?'
tRp889
as(dp890
S'verbose'
p891
I1
sS'nb_epoch'
p892
I5
sg855
I256
sg856
(lp893
g849
ag863
aS'val_loss'
p894
aS'val_acc'
p895
asS'nb_sample'
p896
I47812
sS'do_validation'
p897
I01
sg26
(g28
S'__e_\x8f\xc8\xd8?'
tRp898
g26
(g28
S'\xbd\xbb\r\xe2k_\xec?'
tRp899
tp900
a((dp901
S'use_dropout'
p902
I01
sS'use_batchnorm'
p903
I01
sS'init'
p904
S'glorot_normal'
p905
sS'reg_factor'
p906
F1.0603973998701417e-06
sS'dropout_param'
p907
F0.14705732380235623
s(dp908
S'loss'
p909
S'categorical_crossentropy'
p910
sS'optimizer'
p911
S'sgd'
p912
sS'decay'
p913
F0.00064759678190452882
sS'nesterov'
p914
I01
sS'batch_size'
p915
I256
sS'metrics'
p916
(lp917
S'accuracy'
p918
asS'lr'
p919
F0.0187147881851146
sS'nb_epochs'
p920
I5
sS'momentum'
p921
F0.86237228574656921
s(dp922
S'acc'
p923
(lp924
g26
(g28
S'\x03\xce}\xce)`\xe6?'
tRp925
ag26
(g28
S'h{\xde\x0cy\xac\xeb?'
tRp926
ag26
(g28
S'c\xd6\xc6|\xab\x89\xec?'
tRp927
ag26
(g28
S'\\@37\xfd!\xed?'
tRp928
ag26
(g28
S'b-\x89\x0b$}\xed?'
tRp929
asg909
(lp930
g26
(g28
S'-\xf7[Z\xd4\x08\xee?'
tRp931
ag26
(g28
S'<\xcft\xd2bI\xdc?'
tRp932
ag26
(g28
S'\x8d\xd5\x1d\x7fx\xbd\xd6?'
tRp933
ag26
(g28
S'\x92\x87&\xa9\xe8H\xd3?'
tRp934
ag26
(g28
S'n4p9k\x9a\xd0?'
tRp935
asS'val_acc'
p936
(lp937
g26
(g28
S'rF\xca\xba\xd4\x01\xea?'
tRp938
ag26
(g28
S'XZ\xedb\xaf\xc8\xeb?'
tRp939
ag26
(g28
S')\xf5 \xd4\xc4\xcb\xeb?'
tRp940
ag26
(g28
S'\x98o\xf4O?^\xec?'
tRp941
ag26
(g28
S'\xc7\xa7\xe6\rV\x86\xec?'
tRp942
asS'val_loss'
p943
(lp944
g26
(g28
S'\x98o\xf4\xcf}\xfd\xe2?'
tRp945
ag26
(g28
S'\x11\xa8`j\xe0\x83\xdb?'
tRp946
ag26
(g28
S'\xb1\xa4&^c\xe9\xda?'
tRp947
ag26
(g28
S'\t\xfb&\xb7\x1aO\xd8?'
tRp948
ag26
(g28
S'\x80&!\x10\xaf\xca\xd7?'
tRp949
as(dp950
S'verbose'
p951
I1
sS'nb_epoch'
p952
I5
sg915
I256
sg916
(lp953
g909
ag923
aS'val_loss'
p954
aS'val_acc'
p955
asS'nb_sample'
p956
I47812
sS'do_validation'
p957
I01
sg26
(g28
S'\xba*\xf8i\x8e\xfc\xd7?'
tRp958
g26
(g28
S'\xd8\xc4\x12W\x02\x82\xec?'
tRp959
tp960
a((dp961
S'use_dropout'
p962
I01
sS'use_batchnorm'
p963
I01
sS'init'
p964
S'glorot_normal'
p965
sS'reg_factor'
p966
F1.1936655943228183e-06
sS'dropout_param'
p967
F0.075252517600119542
s(dp968
S'loss'
p969
S'categorical_crossentropy'
p970
sS'optimizer'
p971
S'sgd'
p972
sS'decay'
p973
F0.0001048462622701259
sS'nesterov'
p974
I01
sS'batch_size'
p975
I256
sS'metrics'
p976
(lp977
S'accuracy'
p978
asS'lr'
p979
F0.0055280520645566138
sS'nb_epochs'
p980
I5
sS'momentum'
p981
F0.86318823712656922
s(dp982
S'acc'
p983
(lp984
g26
(g28
S'1\xbc\xbd\xf5\x9b\xee\xe3?'
tRp985
ag26
(g28
S'\xc5\xf9\x12\xcad\xfe\xea?'
tRp986
ag26
(g28
S'\xa1E]-8\x11\xec?'
tRp987
ag26
(g28
S'\x8ae\xeb\x81P\xa1\xec?'
tRp988
ag26
(g28
S'\xf0\x16!\x87\xd8"\xed?'
tRp989
asg969
(lp990
g26
(g28
S'\xc5^\xe7\xed\x893\xf3?'
tRp991
ag26
(g28
S'z\x7f\xc04z\xf8\xe0?'
tRp992
ag26
(g28
S'7D?\xb6O]\xda?'
tRp993
ag26
(g28
S'8\x1e\x8d\xb3\xb2\x9f\xd6?'
tRp994
ag26
(g28
S'l\xa1?5\xb4\xa2\xd3?'
tRp995
asS'val_acc'
p996
(lp997
g26
(g28
S'\xfb\xa4\xa0:4\xc4\xe8?'
tRp998
ag26
(g28
S'\xb06\xd1j\xa1j\xeb?'
tRp999
ag26
(g28
S'\xdf-H\xa6K^\xeb?'
tRp1000
ag26
(g28
S'o\xb7a4\x83\x9d\xeb?'
tRp1001
ag26
(g28
S'\xe3\x94n\xa9\xbeK\xec?'
tRp1002
asS'val_loss'
p1003
(lp1004
g26
(g28
S'\xd6_\xfb\x7f\xe2\xf8\xe7?'
tRp1005
ag26
(g28
S'\x16\xff\xd2\xa5h\xd6\xdf?'
tRp1006
ag26
(g28
S'\x1e\xd5\xf9\xbfU2\xde?'
tRp1007
ag26
(g28
S'\xc8\rb\xad\x0b\x11\xdd?'
tRp1008
ag26
(g28
S'\xc9\xfd\xad\xe5%x\xd9?'
tRp1009
as(dp1010
S'verbose'
p1011
I1
sS'nb_epoch'
p1012
I5
sg975
I256
sg976
(lp1013
g969
ag983
aS'val_loss'
p1014
aS'val_acc'
p1015
asS'nb_sample'
p1016
I47812
sS'do_validation'
p1017
I01
sg26
(g28
S'<+\xfeC\xcd\xef\xd9?'
tRp1018
g26
(g28
S'^$\xadT\x80\x1d\xec?'
tRp1019
tp1020
a((dp1021
S'use_dropout'
p1022
I01
sS'use_batchnorm'
p1023
I01
sS'init'
p1024
S'glorot_normal'
p1025
sS'reg_factor'
p1026
F6.320967264155618e-05
sS'dropout_param'
p1027
F0.015800795191023388
s(dp1028
S'loss'
p1029
S'categorical_crossentropy'
p1030
sS'optimizer'
p1031
S'sgd'
p1032
sS'decay'
p1033
F0.0053256074210414764
sS'nesterov'
p1034
I01
sS'batch_size'
p1035
I256
sS'metrics'
p1036
(lp1037
S'accuracy'
p1038
asS'lr'
p1039
F0.040161949226338881
sS'nb_epochs'
p1040
I5
sS'momentum'
p1041
F0.7984956116427977
s(dp1042
S'acc'
p1043
(lp1044
g26
(g28
S'z;W\xa7<\xf0\xe7?'
tRp1045
ag26
(g28
S'u\x18\xaaz\xfev\xec?'
tRp1046
ag26
(g28
S'2\x8c\xce4\x1cK\xed?'
tRp1047
ag26
(g28
S'@\xdb\xf3\xc6\xf4\xcb\xed?'
tRp1048
ag26
(g28
S'\xd3\xee\xc1\x91\xe8%\xee?'
tRp1049
asg1029
(lp1050
g26
(g28
S'\xe3O\xceo\x01\xab\xea?'
tRp1051
ag26
(g28
S'\x99D\x8d|\x98V\xd9?'
tRp1052
ag26
(g28
S'S\x8f\x9c\x12\xe6L\xd4?'
tRp1053
ag26
(g28
S'6\xdc\xb6\xa6:<\xd1?'
tRp1054
ag26
(g28
S'\xf5\x91\xb1-\xcd\x1b\xce?'
tRp1055
asS'val_acc'
p1056
(lp1057
g26
(g28
S'%\xbf\xc1\xab\xd7\x84\xeb?'
tRp1058
ag26
(g28
S'\xd6k\xc2]p\xe4\xeb?'
tRp1059
ag26
(g28
S'\xd8\xbd\x9c++\x80\xec?'
tRp1060
ag26
(g28
S'=\x04\xa8\x01\xd8\xbd\xec?'
tRp1061
ag26
(g28
S'\x98\xb0o\xd2\xab\x92\xec?'
tRp1062
asS'val_loss'
p1063
(lp1064
g26
(g28
S'\xd7\x88\xe8f\xcf\xa0\xdd?'
tRp1065
ag26
(g28
S'\xb9\x001gk<\xdb?'
tRp1066
ag26
(g28
S'\xd5s\x9c1\x1e\x11\xd8?'
tRp1067
ag26
(g28
S'B\xe9\xd7\x1fr\xc9\xd6?'
tRp1068
ag26
(g28
S'&)*U\xfd\x83\xd7?'
tRp1069
as(dp1070
S'verbose'
p1071
I1
sS'nb_epoch'
p1072
I5
sg1035
I256
sg1036
(lp1073
g1029
ag1043
aS'val_loss'
p1074
aS'val_acc'
p1075
asS'nb_sample'
p1076
I47812
sS'do_validation'
p1077
I01
sg26
(g28
S'\xf2W\xa7\xf6\xd6\t\xd8?'
tRp1078
g26
(g28
S'nw\xb4\xc4vy\xec?'
tRp1079
tp1080
a((dp1081
S'use_dropout'
p1082
I01
sS'use_batchnorm'
p1083
I01
sS'init'
p1084
S'glorot_normal'
p1085
sS'reg_factor'
p1086
F3.2977188118385511e-06
sS'dropout_param'
p1087
F0.02800644739253658
s(dp1088
S'loss'
p1089
S'categorical_crossentropy'
p1090
sS'optimizer'
p1091
S'sgd'
p1092
sS'decay'
p1093
F0.00021941393930646281
sS'nesterov'
p1094
I01
sS'batch_size'
p1095
I256
sS'metrics'
p1096
(lp1097
S'accuracy'
p1098
asS'lr'
p1099
F0.013441828562626412
sS'nb_epochs'
p1100
I5
sS'momentum'
p1101
F0.96594684464136982
s(dp1102
S'acc'
p1103
(lp1104
g26
(g28
S'\xb2\xad\xf2\xadw\xec\xe7?'
tRp1105
ag26
(g28
S'\x15\xb5\xc9\xb6(\x83\xec?'
tRp1106
ag26
(g28
S'\x0c\xb3\xd8\x9aUS\xed?'
tRp1107
ag26
(g28
S'\x9c\\\xdc\xdfJ\xd8\xed?'
tRp1108
ag26
(g28
S')\xd4\xae\r\x805\xee?'
tRp1109
asg1089
(lp1110
g26
(g28
S'\x19\xbe\x94oR]\xe9?'
tRp1111
ag26
(g28
S'U"\xcd6\x93\xe1\xd6?'
tRp1112
ag26
(g28
S'\x8d#\xc4\x8a\xb2\xd2\xd1?'
tRp1113
ag26
(g28
S'\xea\xab5\xd6g\xfe\xcc?'
tRp1114
ag26
(g28
S'S\xc6\x14\x96h\x82\xc7?'
tRp1115
asS'val_acc'
p1116
(lp1117
g26
(g28
S'\x8e\x80\x94\x16aa\xeb?'
tRp1118
ag26
(g28
S'db\x86\xbb\xc8:\xec?'
tRp1119
ag26
(g28
S'\xc7Z\xa4ma\x9a\xec?'
tRp1120
ag26
(g28
S'1\x10\xb0\xbab\xbf\xec?'
tRp1121
ag26
(g28
S'\\\xd1\xc7m\x14X\xec?'
tRp1122
asS'val_loss'
p1123
(lp1124
g26
(g28
S"\xdc\xe746b'\xde?"
tRp1125
ag26
(g28
S'@\xd0\x9e\xc0\xac\x8a\xd8?'
tRp1126
ag26
(g28
S'{~\x7f\xaa0,\xd7?'
tRp1127
ag26
(g28
S'\xd6\xac=\x00/_\xd6?'
tRp1128
ag26
(g28
S'\xb5L\xc8\xc3\xa8#\xda?'
tRp1129
as(dp1130
S'verbose'
p1131
I1
sS'nb_epoch'
p1132
I5
sg1095
I256
sg1096
(lp1133
g1089
ag1103
aS'val_loss'
p1134
aS'val_acc'
p1135
asS'nb_sample'
p1136
I47812
sS'do_validation'
p1137
I01
sg26
(g28
S'L\xb0\x86h\xaa9\xd9?'
tRp1138
g26
(g28
S"\x8e\x90v\x1d'g\xec?"
tRp1139
tp1140
a((dp1141
S'use_dropout'
p1142
I01
sS'use_batchnorm'
p1143
I01
sS'init'
p1144
S'glorot_normal'
p1145
sS'reg_factor'
p1146
F2.5634543404498989e-05
sS'dropout_param'
p1147
F0.011829956598314701
s(dp1148
S'loss'
p1149
S'categorical_crossentropy'
p1150
sS'optimizer'
p1151
S'sgd'
p1152
sS'decay'
p1153
F0.0060396972819011709
sS'nesterov'
p1154
I01
sS'batch_size'
p1155
I256
sS'metrics'
p1156
(lp1157
S'accuracy'
p1158
asS'lr'
p1159
F0.0065045433962332344
sS'nb_epochs'
p1160
I5
sS'momentum'
p1161
F0.92505395031173387
s(dp1162
S'acc'
p1163
(lp1164
g26
(g28
S'|C\x01\xd5d\\\xe6?'
tRp1165
ag26
(g28
S'\xcb7\xc3\xd5\xf3\xb7\xeb?'
tRp1166
ag26
(g28
S'\xef\xdb\xd3|\xab\x89\xec?'
tRp1167
ag26
(g28
S'\x1c1{h\x92\x0c\xed?'
tRp1168
ag26
(g28
S'1Q\x81*\x9eW\xed?'
tRp1169
asg1149
(lp1170
g26
(g28
S'~\r\xaa|\xdeL\xef?'
tRp1171
ag26
(g28
S's*\xe2\xc0\xb3\xb7\xdd?'
tRp1172
ag26
(g28
S'\xd0\xc9\x81T\x8bJ\xd8?'
tRp1173
ag26
(g28
S'&\xafnpIU\xd5?'
tRp1174
ag26
(g28
S'\xd9\xf5\xf9Y\xf1]\xd3?'
tRp1175
asS'val_acc'
p1176
(lp1177
g26
(g28
S'\xe6\xda\x81\x19z\x9a\xea?'
tRp1178
ag26
(g28
S'\xac\x10&\n\xe3\x98\xeb?'
tRp1179
ag26
(g28
S'\xe6\xa1\xe0Jf\xf5\xeb?'
tRp1180
ag26
(g28
S'5\xbc>\xaaq\t\xec?'
tRp1181
ag26
(g28
S'\x1f3\x9b\x8b\xe9Q\xec?'
tRp1182
asS'val_loss'
p1183
(lp1184
g26
(g28
S'\xc2<\xd3\x00\xfa\x90\xe1?'
tRp1185
ag26
(g28
S'Z\xf5\x1cgp\x82\xdd?'
tRp1186
ag26
(g28
S'\xb0{9W/\x13\xdb?'
tRp1187
ag26
(g28
S'\x01\xe4\x84z7\x14\xda?'
tRp1188
ag26
(g28
S']|\xab\xb9\xfd\xf3\xd8?'
tRp1189
as(dp1190
S'verbose'
p1191
I1
sS'nb_epoch'
p1192
I5
sg1155
I256
sg1156
(lp1193
g1149
ag1163
aS'val_loss'
p1194
aS'val_acc'
p1195
asS'nb_sample'
p1196
I47812
sS'do_validation'
p1197
I01
sg26
(g28
S'\xd5\x9dy\xc1\x8dZ\xd9?'
tRp1198
g26
(g28
S'\x88\xa6F\x1bv>\xec?'
tRp1199
tp1200
a((dp1201
S'use_dropout'
p1202
I01
sS'use_batchnorm'
p1203
I01
sS'init'
p1204
S'glorot_normal'
p1205
sS'reg_factor'
p1206
F7.9870754215346131e-06
sS'dropout_param'
p1207
F0.037858936997772458
s(dp1208
S'loss'
p1209
S'categorical_crossentropy'
p1210
sS'optimizer'
p1211
S'sgd'
p1212
sS'decay'
p1213
F0.0058393506613265258
sS'nesterov'
p1214
I01
sS'batch_size'
p1215
I256
sS'metrics'
p1216
(lp1217
S'accuracy'
p1218
asS'lr'
p1219
F0.0097809476182460116
sS'nb_epochs'
p1220
I5
sS'momentum'
p1221
F0.88455623073293155
s(dp1222
S'acc'
p1223
(lp1224
g26
(g28
S'\xe1\xaf\xac\xf1\xfd_\xe6?'
tRp1225
ag26
(g28
S'\xbdV\x8eJ9\x9d\xeb?'
tRp1226
ag26
(g28
S'\xd6\r\x9a\xb7su\xec?'
tRp1227
ag26
(g28
S'\xa9\x84.d8\xe7\xec?'
tRp1228
ag26
(g28
S'\r\xca\x06SK3\xed?'
tRp1229
asg1209
(lp1230
g26
(g28
S"L\xa8\xae\x85\x99'\xef?"
tRp1231
ag26
(g28
S'GT\xf1|\xba\xf4\xdd?'
tRp1232
ag26
(g28
S'\xe8\xe7\xf4E\xe5\x86\xd8?'
tRp1233
ag26
(g28
S'S$`\xa7\xe2\x90\xd5?'
tRp1234
ag26
(g28
S'L\x13\xeb\xa0p\xb7\xd3?'
tRp1235
asS'val_acc'
p1236
(lp1237
g26
(g28
S'\x03\xbcB7O\x94\xea?'
tRp1238
ag26
(g28
S'*\xe1\x7f",l\xeb?'
tRp1239
ag26
(g28
S'\x94\xf8\x19E\xda\xce\xeb?'
tRp1240
ag26
(g28
S'\x1d\xb0\xf9b\xfc\n\xec?'
tRp1241
ag26
(g28
S'+\x06\x80\x7f\x1eG\xec?'
tRp1242
asS'val_loss'
p1243
(lp1244
g26
(g28
S';8\xb1b\x9b\x1a\xe2?'
tRp1245
ag26
(g28
S'\xdaP\xf2\x9bR\x91\xde?'
tRp1246
ag26
(g28
S'\xee\xb0\xa8\xf3\x83m\xdb?'
tRp1247
ag26
(g28
S'\x00\xc7^\x11}\xfb\xd9?'
tRp1248
ag26
(g28
S'\xab\xaa\xaa*\xe7Z\xd9?'
tRp1249
as(dp1250
S'verbose'
p1251
I1
sS'nb_epoch'
p1252
I5
sg1215
I256
sg1216
(lp1253
g1209
ag1223
aS'val_loss'
p1254
aS'val_acc'
p1255
asS'nb_sample'
p1256
I47812
sS'do_validation'
p1257
I01
sg26
(g28
S'?\xeb\xd7\x93\xb4\xcb\xd9?'
tRp1258
g26
(g28
S'\xe3q\xd9\xc5\x85*\xec?'
tRp1259
tp1260
a((dp1261
S'use_dropout'
p1262
I01
sS'use_batchnorm'
p1263
I01
sS'init'
p1264
S'glorot_normal'
p1265
sS'reg_factor'
p1266
F3.0405650360348998e-06
sS'dropout_param'
p1267
F0.091819309578740668
s(dp1268
S'loss'
p1269
S'categorical_crossentropy'
p1270
sS'optimizer'
p1271
S'sgd'
p1272
sS'decay'
p1273
F0.0029436817927364278
sS'nesterov'
p1274
I01
sS'batch_size'
p1275
I256
sS'metrics'
p1276
(lp1277
S'accuracy'
p1278
asS'lr'
p1279
F0.081897507653104801
sS'nb_epochs'
p1280
I5
sS'momentum'
p1281
F0.80482109996730766
s(dp1282
S'acc'
p1283
(lp1284
g26
(g28
S'Y\x8c\x97\xfc\xf0\xcc\xe7?'
tRp1285
ag26
(g28
S'$\xd8\xd4\xae\x8bf\xec?'
tRp1286
ag26
(g28
S'\xeck\xa1\x1f\t6\xed?'
tRp1287
ag26
(g28
S'\xd7\x11o\x1eV\xbb\xed?'
tRp1288
ag26
(g28
S'CoE\x96v\x0f\xee?'
tRp1289
asg1269
(lp1290
g26
(g28
S'\xdd\x1e\x0f\xfe\xd4\x82\xe9?'
tRp1291
ag26
(g28
S'\xd5\x03]\xd9\xec\x9c\xd7?'
tRp1292
ag26
(g28
S'\xed\xcd\xc1\xb7\xe7\xa7\xd2?'
tRp1293
ag26
(g28
S'\xdc\x92g<A\xcb\xce?'
tRp1294
ag26
(g28
S'@]^\xea\xffW\xca?'
tRp1295
asS'val_acc'
p1296
(lp1297
g26
(g28
S'\x15\x85\xb6\xd4w\x89\xeb?'
tRp1298
ag26
(g28
S'\xac\xcb\xbd\x9d\xf3@\xec?'
tRp1299
ag26
(g28
S'\xbcFD\xf7\xbfp\xec?'
tRp1300
ag26
(g28
S'\xb7 \x99\x96\x01\x9f\xec?'
tRp1301
ag26
(g28
S'U\x96\xd0\xd7\x84\xfb\xec?'
tRp1302
asS'val_loss'
p1303
(lp1304
g26
(g28
S'kLNG\xef\x18\xde?'
tRp1305
ag26
(g28
S'\x80\xdd\xcb\x19D3\xd9?'
tRp1306
ag26
(g28
S'H\xef\x1a\xf1\x99X\xd8?'
tRp1307
ag26
(g28
S'zY\x7f\xadl\t\xd7?'
tRp1308
ag26
(g28
S'\xbc\xf9\x01\x17L\x12\xd5?'
tRp1309
as(dp1310
S'verbose'
p1311
I1
sS'nb_epoch'
p1312
I5
sg1275
I256
sg1276
(lp1313
g1269
ag1283
aS'val_loss'
p1314
aS'val_acc'
p1315
asS'nb_sample'
p1316
I47812
sS'do_validation'
p1317
I01
sg26
(g28
S' \xafE\xf6K\xd7\xd5?'
tRp1318
g26
(g28
S'\xcb\xc1\xeeZd\xd3\xec?'
tRp1319
tp1320
a((dp1321
S'use_dropout'
p1322
I01
sS'use_batchnorm'
p1323
I01
sS'init'
p1324
S'glorot_normal'
p1325
sS'reg_factor'
p1326
F4.2277861244468637e-06
sS'dropout_param'
p1327
F0.065937671805252451
s(dp1328
S'loss'
p1329
S'categorical_crossentropy'
p1330
sS'optimizer'
p1331
S'sgd'
p1332
sS'decay'
p1333
F0.0019356254684253949
sS'nesterov'
p1334
I01
sS'batch_size'
p1335
I256
sS'metrics'
p1336
(lp1337
S'accuracy'
p1338
asS'lr'
p1339
F0.03954625194762245
sS'nb_epochs'
p1340
I5
sS'momentum'
p1341
F0.8080269236143176
s(dp1342
S'acc'
p1343
(lp1344
g26
(g28
S'`\x8dg\xcd\xfb\x03\xe6?'
tRp1345
ag26
(g28
S'\xad\xc4q \xf6\xdc\xeb?'
tRp1346
ag26
(g28
S'\xb0\x9f\xe0(Y\xcd\xec?'
tRp1347
ag26
(g28
S'\xa0\xfaj-\x96\\\xed?'
tRp1348
ag26
(g28
S'j\xad\x0f\xc4\xfc\xc6\xed?'
tRp1349
asg1329
(lp1350
g26
(g28
S'\x89\xe9\xe8\xe5:\xc6\xee?'
tRp1351
ag26
(g28
S':\x1f\xae^\xb8\x11\xdb?'
tRp1352
ag26
(g28
S'\xfc\x955Z\xe6(\xd5?'
tRp1353
ag26
(g28
S'\x81\xc1E\xd7\x16\xdb\xd1?'
tRp1354
ag26
(g28
S'\xd0\x98q\x88\x1f\x0e\xce?'
tRp1355
asS'val_acc'
p1356
(lp1357
g26
(g28
S'\x97\x87\x82k\x07\xe6\xea?'
tRp1358
ag26
(g28
S'M\xb8\xcf\xc9\xac~\xeb?'
tRp1359
ag26
(g28
S'\x81\xd5\xf1\x85]+\xec?'
tRp1360
ag26
(g28
S'\x19\xf0\xc9aIM\xec?'
tRp1361
ag26
(g28
S'\xf4\xef\x8c\xd3^P\xec?'
tRp1362
asS'val_loss'
p1363
(lp1364
g26
(g28
S'\x8dO\xcd\xeb\xd6R\xe0?'
tRp1365
ag26
(g28
S'\xaf\xc8{W\x90\xb2\xdd?'
tRp1366
ag26
(g28
S'oE\x1fW\x15\xb2\xd8?'
tRp1367
ag26
(g28
S'\x1cskJ\xa26\xd8?'
tRp1368
ag26
(g28
S'\nuC(\x1b\xbc\xd8?'
tRp1369
as(dp1370
S'verbose'
p1371
I1
sS'nb_epoch'
p1372
I5
sg1335
I256
sg1336
(lp1373
g1329
ag1343
aS'val_loss'
p1374
aS'val_acc'
p1375
asS'nb_sample'
p1376
I47812
sS'do_validation'
p1377
I01
sg26
(g28
S'\xf1\x83\xae\xb1\xa9m\xd9?'
tRp1378
g26
(g28
S'}\xf6\xc2\xef\r>\xec?'
tRp1379
tp1380
a((dp1381
S'use_dropout'
p1382
I01
sS'use_batchnorm'
p1383
I01
sS'init'
p1384
S'glorot_normal'
p1385
sS'reg_factor'
p1386
F1.4826137667445913e-06
sS'dropout_param'
p1387
F0.055336650765736385
s(dp1388
S'loss'
p1389
S'categorical_crossentropy'
p1390
sS'optimizer'
p1391
S'sgd'
p1392
sS'decay'
p1393
F0.00099253474039847495
sS'nesterov'
p1394
I01
sS'batch_size'
p1395
I256
sS'metrics'
p1396
(lp1397
S'accuracy'
p1398
asS'lr'
p1399
F0.085907063027100439
sS'nb_epochs'
p1400
I5
sS'momentum'
p1401
F0.80135848254694109
s(dp1402
S'acc'
p1403
(lp1404
g26
(g28
S'\xc6h$|\xcb\xd3\xe7?'
tRp1405
ag26
(g28
S'\xfdN\x18\xc1\xa6v\xec?'
tRp1406
ag26
(g28
S'_E))<7\xed?'
tRp1407
ag26
(g28
S'D_\xa0\xe0\x95\xca\xed?'
tRp1408
ag26
(g28
S'Rq\xe5Wk,\xee?'
tRp1409
asg1389
(lp1410
g26
(g28
S'\x8cVg\x17\xe9R\xe9?'
tRp1411
ag26
(g28
S'\xf1\xf3"\x80Q;\xd7?'
tRp1412
ag26
(g28
S'L\x16\x9f\x1cj(\xd2?'
tRp1413
ag26
(g28
S'\xb9\xa1\xd1d+C\xcd?'
tRp1414
ag26
(g28
S'\x90EP\xdc\x9c9\xc8?'
tRp1415
asS'val_acc'
p1416
(lp1417
g26
(g28
S'\x91\xffH\x95\xa7\xea\xea?'
tRp1418
ag26
(g28
S'Q\xb5\x8dcb\x86\xeb?'
tRp1419
ag26
(g28
S'\x89f\xb0\xd3\x11\x0e\xec?'
tRp1420
ag26
(g28
S'P?^\xfcK\x97\xec?'
tRp1421
ag26
(g28
S'\x08\\\nIM\xbc\xec?'
tRp1422
asS'val_loss'
p1423
(lp1424
g26
(g28
S'j\xde\xf8\x938\x12\xe0?'
tRp1425
ag26
(g28
S'\xcc\xb9\xf0<\xd8\x85\xdd?'
tRp1426
ag26
(g28
S'\xc0\xa9}\xb0}s\xd9?'
tRp1427
ag26
(g28
S'\x1a!\x91<}\xc4\xd7?'
tRp1428
ag26
(g28
S'\x1952\xee\xa6m\xd7?'
tRp1429
as(dp1430
S'verbose'
p1431
I1
sS'nb_epoch'
p1432
I5
sg1395
I256
sg1396
(lp1433
g1389
ag1403
aS'val_loss'
p1434
aS'val_acc'
p1435
asS'nb_sample'
p1436
I47812
sS'do_validation'
p1437
I01
sg26
(g28
S'H\x19\xf7\xf6s\x00\xd8?'
tRp1438
g26
(g28
S'U\xf0\x13x\x88}\xec?'
tRp1439
tp1440
a((dp1441
S'use_dropout'
p1442
I01
sS'use_batchnorm'
p1443
I01
sS'init'
p1444
S'glorot_normal'
p1445
sS'reg_factor'
p1446
F2.477226787483948e-05
sS'dropout_param'
p1447
F0.02680434866607824
s(dp1448
S'loss'
p1449
S'categorical_crossentropy'
p1450
sS'optimizer'
p1451
S'sgd'
p1452
sS'decay'
p1453
F0.0028922436513771355
sS'nesterov'
p1454
I01
sS'batch_size'
p1455
I256
sS'metrics'
p1456
(lp1457
S'accuracy'
p1458
asS'lr'
p1459
F0.052702980656826423
sS'nb_epochs'
p1460
I5
sS'momentum'
p1461
F0.97197699623818479
s(dp1462
S'acc'
p1463
(lp1464
g26
(g28
S"oR'4\xdeI\xe7?"
tRp1465
ag26
(g28
S'1*\xae\xdc\x11\x1e\xec?'
tRp1466
ag26
(g28
S'\x7f1\xc9N\xf1\r\xed?'
tRp1467
ag26
(g28
S'3\xb0\xed\xa6L\x95\xed?'
tRp1468
ag26
(g28
S'^\x8f\xfa]\x8f\xfa\xed?'
tRp1469
asg1449
(lp1470
g26
(g28
S'\xcb4\x0f\x9a\x8c\xb0\xeb?'
tRp1471
ag26
(g28
S'3yuCY\xf4\xda?'
tRp1472
ag26
(g28
S'u\x96?\xf7\x10u\xd5?'
tRp1473
ag26
(g28
S'\x9a\xe0\xd9\xe3>\xfb\xd1?'
tRp1474
ag26
(g28
S'^\xa6(\x16~\x12\xcf?'
tRp1475
asS'val_acc'
p1476
(lp1477
g26
(g28
S'\xad5&\xc7R\xca\xe9?'
tRp1478
ag26
(g28
S'\x046_\xc8F\x03\xec?'
tRp1479
ag26
(g28
S'-\x17\xdf\xaa$\xc7\xeb?'
tRp1480
ag26
(g28
S'\x8dW\xa7O?^\xec?'
tRp1481
ag26
(g28
S'<\xe7\x818\xf6\x8a\xec?'
tRp1482
asS'val_loss'
p1483
(lp1484
g26
(g28
S'S@\t\x80\xd4\x00\xe5?'
tRp1485
ag26
(g28
S'|z\x92`!\xad\xd9?'
tRp1486
ag26
(g28
S'\x8d\xd1\xc3\xe0\x0bX\xdb?'
tRp1487
ag26
(g28
S'xL\r\xec\xb9\xf9\xd8?'
tRp1488
ag26
(g28
S'\xb6@\x01&\xe2=\xd8?'
tRp1489
as(dp1490
S'verbose'
p1491
I1
sS'nb_epoch'
p1492
I5
sg1455
I256
sg1456
(lp1493
g1449
ag1463
aS'val_loss'
p1494
aS'val_acc'
p1495
asS'nb_sample'
p1496
I47812
sS'do_validation'
p1497
I01
sg26
(g28
S'=\xd02q,c\xd8?'
tRp1498
g26
(g28
S'f\x17\x14-zn\xec?'
tRp1499
tp1500
a((dp1501
S'use_dropout'
p1502
I01
sS'use_batchnorm'
p1503
I01
sS'init'
p1504
S'glorot_normal'
p1505
sS'reg_factor'
p1506
F1.4711677691077631e-05
sS'dropout_param'
p1507
F0.042658675255306575
s(dp1508
S'loss'
p1509
S'categorical_crossentropy'
p1510
sS'optimizer'
p1511
S'sgd'
p1512
sS'decay'
p1513
F0.0053997433210156171
sS'nesterov'
p1514
I01
sS'batch_size'
p1515
I256
sS'metrics'
p1516
(lp1517
S'accuracy'
p1518
asS'lr'
p1519
F0.019168478855579582
sS'nb_epochs'
p1520
I5
sS'momentum'
p1521
F0.85434205116137274
s(dp1522
S'acc'
p1523
(lp1524
g26
(g28
S"\xad\xa4'\xf5\x0c\x93\xe6?"
tRp1525
ag26
(g28
S'\x149\xc7*t\xd0\xeb?'
tRp1526
ag26
(g28
S'\xacE\xbb\xf8B\x99\xec?'
tRp1527
ag26
(g28
S'#\xca\xc2i\xf4,\xed?'
tRp1528
ag26
(g28
S'\xf3\xd7\xad\x1b\x92z\xed?'
tRp1529
asg1509
(lp1530
g26
(g28
S'b\xdf\xe2\x8fG\xa5\xed?'
tRp1531
ag26
(g28
S'\xbb4\x02i_\x86\xdc?'
tRp1532
ag26
(g28
S'\xdf\xef@\xe8U\x1c\xd7?'
tRp1533
ag26
(g28
S'\xc9\xe8\xfb>\x02\xef\xd3?'
tRp1534
ag26
(g28
S'@\xd5\x8boE\xd1\xd1?'
tRp1535
asS'val_acc'
p1536
(lp1537
g26
(g28
S'\xe9\x92\xd7&\x11\x9c\xe9?'
tRp1538
ag26
(g28
S'*"\xfb\xa4\x98\xa0\xeb?'
tRp1539
ag26
(g28
S'(\xc8Fc\xfc\n\xec?'
tRp1540
ag26
(g28
S'6\xddQ\xfd\xb1\x12\xec?'
tRp1541
ag26
(g28
S'\r\xfc\xd1\x1a\xd4N\xec?'
tRp1542
asS'val_loss'
p1543
(lp1544
g26
(g28
S'\xc6\xf8\x15\x18\x03\xd5\xe3?'
tRp1545
ag26
(g28
S'\xec\x9fIHh\xb4\xdc?'
tRp1546
ag26
(g28
S'\xfa\x83\x8d\x07*K\xda?'
tRp1547
ag26
(g28
S'\x10:\x0bw\x90u\xd9?'
tRp1548
ag26
(g28
S'\xf1x\xb2\xc8$\xab\xd8?'
tRp1549
as(dp1550
S'verbose'
p1551
I1
sS'nb_epoch'
p1552
I5
sg1515
I256
sg1516
(lp1553
g1509
ag1523
aS'val_loss'
p1554
aS'val_acc'
p1555
asS'nb_sample'
p1556
I47812
sS'do_validation'
p1557
I01
sg26
(g28
S'\xd1m\xa9\x95@!\xd9?'
tRp1558
g26
(g28
S'\xdb\xdf\xb7\xb9\xc38\xec?'
tRp1559
tp1560
a((dp1561
S'use_dropout'
p1562
I01
sS'use_batchnorm'
p1563
I01
sS'init'
p1564
S'glorot_normal'
p1565
sS'reg_factor'
p1566
F1.0519776004075977e-05
sS'dropout_param'
p1567
F0.011346101532970656
s(dp1568
S'loss'
p1569
S'categorical_crossentropy'
p1570
sS'optimizer'
p1571
S'sgd'
p1572
sS'decay'
p1573
F0.00029369588754297495
sS'nesterov'
p1574
I01
sS'batch_size'
p1575
I256
sS'metrics'
p1576
(lp1577
S'accuracy'
p1578
asS'lr'
p1579
F0.018289252327637871
sS'nb_epochs'
p1580
I5
sS'momentum'
p1581
F0.95531173726183372
s(dp1582
S'acc'
p1583
(lp1584
g26
(g28
S'\xab\x11\xf7P\xab\x11\xe7?'
tRp1585
ag26
(g28
S'\x90\x99^\x8f\xfa]\xec?'
tRp1586
ag26
(g28
S'\xdd\xa0y\x01\xdaM\xed?'
tRp1587
ag26
(g28
S'f\xe5\xf9\x8cw\xd2\xed?'
tRp1588
ag26
(g28
S'\xbc+\xe65\xf9L\xee?'
tRp1589
asg1569
(lp1590
g26
(g28
S'\x91\xa7p\xd4\x8a\xe9\xeb?'
tRp1591
ag26
(g28
S'J/`%p\xea\xd7?'
tRp1592
ag26
(g28
S'\xb9M\xc3Q\x08*\xd2?'
tRp1593
ag26
(g28
S'|Iil\x04R\xcd?'
tRp1594
ag26
(g28
S'\x0b[\xf5\x00\xc7\x7f\xc7?'
tRp1595
asS'val_acc'
p1596
(lp1597
g26
(g28
S'm\xebj\xf5\x18z\xea?'
tRp1598
ag26
(g28
S'x\xbeO\t}\x1d\xec?'
tRp1599
ag26
(g28
S'\x93\x9axy\xdfb\xec?'
tRp1600
ag26
(g28
S'\xe6#\xd7O?^\xec?'
tRp1601
ag26
(g28
S'k\xda\x0b\xeaA\xa8\xec?'
tRp1602
asS'val_loss'
p1603
(lp1604
g26
(g28
S'\x06\xbd\xedZ\x0b\x91\xe1?'
tRp1605
ag26
(g28
S'\x04c9\xb9\xd9\x16\xda?'
tRp1606
ag26
(g28
S'\x87\x10\xe9\xdb\x06\x1f\xd8?'
tRp1607
ag26
(g28
S'\x8e\xc1\x0fy\n\xfe\xd8?'
tRp1608
ag26
(g28
S'\xe5\xb1\x94\x129\x9c\xd8?'
tRp1609
as(dp1610
S'verbose'
p1611
I1
sS'nb_epoch'
p1612
I5
sg1575
I256
sg1576
(lp1613
g1569
ag1583
aS'val_loss'
p1614
aS'val_acc'
p1615
asS'nb_sample'
p1616
I47812
sS'do_validation'
p1617
I01
sg26
(g28
S"'d7\x07\xb0\x12\xd9?"
tRp1618
g26
(g28
S'A\xc8\x07\xcfX~\xec?'
tRp1619
tp1620
a((dp1621
S'use_dropout'
p1622
I01
sS'use_batchnorm'
p1623
I01
sS'init'
p1624
S'glorot_normal'
p1625
sS'reg_factor'
p1626
F2.8862622116726899e-06
sS'dropout_param'
p1627
F0.050225959934079342
s(dp1628
S'loss'
p1629
S'categorical_crossentropy'
p1630
sS'optimizer'
p1631
S'sgd'
p1632
sS'decay'
p1633
F0.00216327689445469
sS'nesterov'
p1634
I01
sS'batch_size'
p1635
I256
sS'metrics'
p1636
(lp1637
S'accuracy'
p1638
asS'lr'
p1639
F0.014641108373395136
sS'nb_epochs'
p1640
I5
sS'momentum'
p1641
F0.95446600626934142
s(dp1642
S'acc'
p1643
(lp1644
g26
(g28
S'\xcd\xad]*\xc8\xde\xe6?'
tRp1645
ag26
(g28
S'\xe6\x95yc>O\xec?'
tRp1646
ag26
(g28
S'\x98g\x8b\xe3\xde)\xed?'
tRp1647
ag26
(g28
S'\xecx\x929\x8d\x9e\xed?'
tRp1648
ag26
(g28
S'\xc9\xe5G35\x0c\xee?'
tRp1649
asg1629
(lp1650
g26
(g28
S'\xd3L\r\xe32b\xec?'
tRp1651
ag26
(g28
S'\xda]\x82\x896\x89\xd8?'
tRp1652
ag26
(g28
S'\x14\xdb{\x99\xb2\x13\xd3?'
tRp1653
ag26
(g28
S'\xf0\x0c\xe4\xe8\x06\xb3\xcf?'
tRp1654
ag26
(g28
S'\xe7\x82 \xb2\xec\x85\xca?'
tRp1655
asS'val_acc'
p1656
(lp1657
g26
(g28
S'\xbf\na\x82\xea=\xeb?'
tRp1658
ag26
(g28
S'v+\xfa\xd8\x9d4\xec?'
tRp1659
ag26
(g28
S'\xd3\xec\r\xdf)[\xec?'
tRp1660
ag26
(g28
S'\xb8\xdf\x1d\x14\x95j\xec?'
tRp1661
ag26
(g28
S'\xe4G,\t\xca_\xec?'
tRp1662
asS'val_loss'
p1663
(lp1664
g26
(g28
S'\xce\x89\xd4\x85\x08\x11\xdf?'
tRp1665
ag26
(g28
S'5\xb0wl\x1d\xd7\xd9?'
tRp1666
ag26
(g28
S'\xe4\xc9"N\xc7{\xd9?'
tRp1667
ag26
(g28
S'\xe3\x98[\x13#j\xd8?'
tRp1668
ag26
(g28
S'\x17\xdb}\x8c<\x10\xd8?'
tRp1669
as(dp1670
S'verbose'
p1671
I1
sS'nb_epoch'
p1672
I5
sg1635
I256
sg1636
(lp1673
g1629
ag1643
aS'val_loss'
p1674
aS'val_acc'
p1675
asS'nb_sample'
p1676
I47812
sS'do_validation'
p1677
I01
sg26
(g28
S'fLR\xbeT2\xd8?'
tRp1678
g26
(g28
S'\x0e\xa8X\x89\xbbq\xec?'
tRp1679
tp1680
a((dp1681
S'use_dropout'
p1682
I01
sS'use_batchnorm'
p1683
I01
sS'init'
p1684
S'glorot_normal'
p1685
sS'reg_factor'
p1686
F1.7276357614314544e-06
sS'dropout_param'
p1687
F0.010123133979417777
s(dp1688
S'loss'
p1689
S'categorical_crossentropy'
p1690
sS'optimizer'
p1691
S'sgd'
p1692
sS'decay'
p1693
F0.0020673671699634175
sS'nesterov'
p1694
I01
sS'batch_size'
p1695
I256
sS'metrics'
p1696
(lp1697
S'accuracy'
p1698
asS'lr'
p1699
F0.056069028197854746
sS'nb_epochs'
p1700
I5
sS'momentum'
p1701
F0.91223997977908144
s(dp1702
S'acc'
p1703
(lp1704
g26
(g28
S']^\xea\x11|\x0f\xe5?'
tRp1705
ag26
(g28
S'\x12\xf4<"o+\xec?'
tRp1706
ag26
(g28
S'\xd5~>\x9a>%\xed?'
tRp1707
ag26
(g28
S'\xe8\x93\xe6\xf2\xb0\xda\xed?'
tRp1708
ag26
(g28
S'35\x0c\xe6\x1dL\xee?'
tRp1709
asg1689
(lp1710
g26
(g28
S'd\xa3#@8u\xf0?'
tRp1711
ag26
(g28
S'(\x99a#\xbf\x14\xd9?'
tRp1712
ag26
(g28
S'\xaf\xbf*\x14\xa2\x9f\xd2?'
tRp1713
ag26
(g28
S'\xc7\x86\xdb\x16D\xf2\xcc?'
tRp1714
ag26
(g28
S'zU9\x9b\x924\xc7?'
tRp1715
asS'val_acc'
p1716
(lp1717
g26
(g28
S'\x1fCOs\xacE\xea?'
tRp1718
ag26
(g28
S'\x94\x8a\xc4Q\xa5\xd9\xeb?'
tRp1719
ag26
(g28
S'o\xbbN>5o\xec?'
tRp1720
ag26
(g28
S'\x1e\x16u\xc2\x07\x1f\xec?'
tRp1721
ag26
(g28
S'\x11_\x0bt\xa0~\xec?'
tRp1722
asS'val_loss'
p1723
(lp1724
g26
(g28
S'\xaf\x15\xbe\x17aE\xe2?'
tRp1725
ag26
(g28
S'\x1b\xd0a\x92\xfd(\xdb?'
tRp1726
ag26
(g28
S'\xcct\x88\xf0\xbd3\xd9?'
tRp1727
ag26
(g28
S' \xe2k\xa1\x05\xf2\xd9?'
tRp1728
ag26
(g28
S'\xa5c\xec\xd6\xbc\x93\xd9?'
tRp1729
as(dp1730
S'verbose'
p1731
I1
sS'nb_epoch'
p1732
I5
sg1695
I256
sg1696
(lp1733
g1689
ag1703
aS'val_loss'
p1734
aS'val_acc'
p1735
asS'nb_sample'
p1736
I47812
sS'do_validation'
p1737
I01
sg26
(g28
S'\xbf\x9b\xfaYZ\x0b\xda?'
tRp1738
g26
(g28
S'o\xb8\xe6H\x8fg\xec?'
tRp1739
tp1740
a((dp1741
S'use_dropout'
p1742
I01
sS'use_batchnorm'
p1743
I01
sS'init'
p1744
S'glorot_normal'
p1745
sS'reg_factor'
p1746
F2.509926857638162e-06
sS'dropout_param'
p1747
F0.023781859755462108
s(dp1748
S'loss'
p1749
S'categorical_crossentropy'
p1750
sS'optimizer'
p1751
S'sgd'
p1752
sS'decay'
p1753
F0.00012872169222719686
sS'nesterov'
p1754
I01
sS'batch_size'
p1755
I256
sS'metrics'
p1756
(lp1757
S'accuracy'
p1758
asS'lr'
p1759
F0.038311582178654636
sS'nb_epochs'
p1760
I5
sS'momentum'
p1761
F0.96048731392650999
s(dp1762
S'acc'
p1763
(lp1764
g26
(g28
S'\x1b\xb2\xc4\x00\x9cL\xe7?'
tRp1765
ag26
(g28
S'\x00G\x1d\x99a#\xec?'
tRp1766
ag26
(g28
S'\x965Z,h\x00\xed?'
tRp1767
ag26
(g28
S';\x91s\x8c`\xa4\xed?'
tRp1768
ag26
(g28
S'\x07\x04\x84\xcc\xb0\x11\xee?'
tRp1769
asg1749
(lp1770
g26
(g28
S'\xe9I\x15\x8e\x81\xad\xea?'
tRp1771
ag26
(g28
S'\xb7\x90\x0bd\xb0\xce\xd8?'
tRp1772
ag26
(g28
S'\x1db\x8b\xd4\xc2j\xd3?'
tRp1773
ag26
(g28
S'\xe1\x1d\x9d\xd8\x10*\xcf?'
tRp1774
ag26
(g28
S';\xfc\xaf\x97#L\xc9?'
tRp1775
asS'val_acc'
p1776
(lp1777
g26
(g28
S'\xce\x03\xf1\xd6\xdd\x04\xeb?'
tRp1778
ag26
(g28
S's.<?\xe8,\xec?'
tRp1779
ag26
(g28
S'\x99\xa0\xbb\xaaq\t\xec?'
tRp1780
ag26
(g28
S'\xf0S\xb2\x8b6\x94\xec?'
tRp1781
ag26
(g28
S'\x98\xb4\\\\\ni\xec?'
tRp1782
asS'val_loss'
p1783
(lp1784
g26
(g28
S'\xe4\x88\xa7\xeb\x91\x9d\xdf?'
tRp1785
ag26
(g28
S'\x81\xc9*h\xe3$\xdb?'
tRp1786
ag26
(g28
S'*\xd9\xa5\xce\xcbb\xda?'
tRp1787
ag26
(g28
S"\x00v/'WY\xd8?"
tRp1788
ag26
(g28
S'>z\xd7hlP\xd9?'
tRp1789
as(dp1790
S'verbose'
p1791
I1
sS'nb_epoch'
p1792
I5
sg1755
I256
sg1756
(lp1793
g1749
ag1763
aS'val_loss'
p1794
aS'val_acc'
p1795
asS'nb_sample'
p1796
I47812
sS'do_validation'
p1797
I01
sg26
(g28
S's\x81\xf7\xce\x13\x92\xd9?'
tRp1798
g26
(g28
S'Xo\xbb\xe3KL\xec?'
tRp1799
tp1800
a((dp1801
S'use_dropout'
p1802
I01
sS'use_batchnorm'
p1803
I01
sS'init'
p1804
S'glorot_normal'
p1805
sS'reg_factor'
p1806
F1.0342004639004618e-05
sS'dropout_param'
p1807
F0.011108276315755419
s(dp1808
S'loss'
p1809
S'categorical_crossentropy'
p1810
sS'optimizer'
p1811
S'sgd'
p1812
sS'decay'
p1813
F0.00016080602543125353
sS'nesterov'
p1814
I01
sS'batch_size'
p1815
I256
sS'metrics'
p1816
(lp1817
S'accuracy'
p1818
asS'lr'
p1819
F0.090317743778484186
sS'nb_epochs'
p1820
I5
sS'momentum'
p1821
F0.84063803682001326
s(dp1822
S'acc'
p1823
(lp1824
g26
(g28
S'\nq\x02\x0ec\x9f\xe6?'
tRp1825
ag26
(g28
S'q\xa7V\xf2;a\xec?'
tRp1826
ag26
(g28
S'\x1e\xee2v\x1f3\xed?'
tRp1827
ag26
(g28
S'CK&$F\xc5\xed?'
tRp1828
ag26
(g28
S'5\x1cK\xdd5=\xee?'
tRp1829
asg1809
(lp1830
g26
(g28
S'O\x18\xe1\xc2r\xa0\xec?'
tRp1831
ag26
(g28
S'<\rv\x18\xce\xbf\xd7?'
tRp1832
ag26
(g28
S'\xff\x9a+\x9c\x10\x83\xd2?'
tRp1833
ag26
(g28
S'\xa7\xc7v\xf6t/\xce?'
tRp1834
ag26
(g28
S"\x81\x905\xeb\xe5'\xc8?"
tRp1835
asS'val_acc'
p1836
(lp1837
g26
(g28
S'\xfc\x90\xff\xa8\xca\x12\xea?'
tRp1838
ag26
(g28
S'\xda\xd6\xd5\xca\x12\xfa\xea?'
tRp1839
ag26
(g28
S'\xd4\r!2jd\xec?'
tRp1840
ag26
(g28
S'\xf2\xe2\x1a2\xb7\xa6\xec?'
tRp1841
ag26
(g28
S'\xf71\xb3y\xdfb\xec?'
tRp1842
asS'val_loss'
p1843
(lp1844
g26
(g28
S'\x9a;\xeb\xce\xde\xcb\xe3?'
tRp1845
ag26
(g28
S'\xf9F\xffn\x970\xe0?'
tRp1846
ag26
(g28
S'jp\xa3`\xc6%\xd8?'
tRp1847
ag26
(g28
S'}Z*1\xb4\xcb\xd6?'
tRp1848
ag26
(g28
S']?\x1d!\xe6\xc6\xd9?'
tRp1849
as(dp1850
S'verbose'
p1851
I1
sS'nb_epoch'
p1852
I5
sg1815
I256
sg1816
(lp1853
g1809
ag1823
aS'val_loss'
p1854
aS'val_acc'
p1855
asS'nb_sample'
p1856
I47812
sS'do_validation'
p1857
I01
sg26
(g28
S'\x0e\x0f\x18\xcf\x15\x89\xd9?'
tRp1858
g26
(g28
S'\x91\xe0Y\xb1\x92\\\xec?'
tRp1859
tp1860
a((dp1861
S'use_dropout'
p1862
I01
sS'use_batchnorm'
p1863
I01
sS'init'
p1864
S'glorot_normal'
p1865
sS'reg_factor'
p1866
F6.6777926575189997e-06
sS'dropout_param'
p1867
F0.044878014397655534
s(dp1868
S'loss'
p1869
S'categorical_crossentropy'
p1870
sS'optimizer'
p1871
S'sgd'
p1872
sS'decay'
p1873
F0.005804785525234113
sS'nesterov'
p1874
I01
sS'batch_size'
p1875
I256
sS'metrics'
p1876
(lp1877
S'accuracy'
p1878
asS'lr'
p1879
F0.031180303393193502
sS'nb_epochs'
p1880
I5
sS'momentum'
p1881
F0.9090993068739236
s(dp1882
S'acc'
p1883
(lp1884
g26
(g28
S'\xad\x9a\xea\xb6\x93\xbf\xe7?'
tRp1885
ag26
(g28
S'\x82t\xc0\xe6[M\xec?'
tRp1886
ag26
(g28
S':\x97\xdb\x03\xbb$\xed?'
tRp1887
ag26
(g28
S'\x82\x84e\xdc;\xa5\xed?'
tRp1888
ag26
(g28
S'\x8cIv\xddi\x01\xee?'
tRp1889
asg1869
(lp1890
g26
(g28
S'\xf9l v\xdc\x0c\xea?'
tRp1891
ag26
(g28
S'\x8c}:%\xddq\xd8?'
tRp1892
ag26
(g28
S'\xa7Y\x86/bL\xd3?'
tRp1893
ag26
(g28
S'\xdcA\r\x15\xecG\xd0?'
tRp1894
ag26
(g28
S'\xc9\xff)\xa7\xdeR\xcc?'
tRp1895
asS'val_acc'
p1896
(lp1897
g26
(g28
S'\xdfn\xc3(\xb8\x92\xeb?'
tRp1898
ag26
(g28
S'\x02\x15Lu\x06\xfa\xeb?'
tRp1899
ag26
(g28
S'\xc3\xf7j\x14\x95j\xec?'
tRp1900
ag26
(g28
S'y\xf3\x03\x0eV\x86\xec?'
tRp1901
ag26
(g28
S'\xf1/]\xd2\xab\x92\xec?'
tRp1902
asS'val_loss'
p1903
(lp1904
g26
(g28
S'\x06K\xab]\xec\x90\xdd?'
tRp1905
ag26
(g28
S'^h\n\xc8\xd2\xb5\xda?'
tRp1906
ag26
(g28
S'\xb7\xaeV\x19\x90O\xd8?'
tRp1907
ag26
(g28
S'\x01\xab\xe3\x0b\xb4f\xd7?'
tRp1908
ag26
(g28
S'\x92i\xb1\xfe\xd5&\xd7?'
tRp1909
as(dp1910
S'verbose'
p1911
I1
sS'nb_epoch'
p1912
I5
sg1875
I256
sg1876
(lp1913
g1869
ag1883
aS'val_loss'
p1914
aS'val_acc'
p1915
asS'nb_sample'
p1916
I47812
sS'do_validation'
p1917
I01
sg26
(g28
S'\xd5\x9a\xbcd\xba>\xd7?'
tRp1918
g26
(g28
S'r\xa7\x84\x90\xdd\x9c\xec?'
tRp1919
tp1920
a((dp1921
S'use_dropout'
p1922
I01
sS'use_batchnorm'
p1923
I01
sS'init'
p1924
S'glorot_normal'
p1925
sS'reg_factor'
p1926
F5.0090886739823023e-06
sS'dropout_param'
p1927
F0.045272278110425578
s(dp1928
S'loss'
p1929
S'categorical_crossentropy'
p1930
sS'optimizer'
p1931
S'sgd'
p1932
sS'decay'
p1933
F0.002476316242680545
sS'nesterov'
p1934
I01
sS'batch_size'
p1935
I256
sS'metrics'
p1936
(lp1937
S'accuracy'
p1938
asS'lr'
p1939
F0.031015361047210761
sS'nb_epochs'
p1940
I5
sS'momentum'
p1941
F0.86880638656867959
s(dp1942
S'acc'
p1943
(lp1944
g26
(g28
S'\xa3\xe2\xca\xcf:&\xe7?'
tRp1945
ag26
(g28
S'\x8f\x8f!Q#?\xec?'
tRp1946
ag26
(g28
S'\xb5\x9f\x8f.\x15\x13\xed?'
tRp1947
ag26
(g28
S'6\xb5\xe3\x98\x8b\xaa\xed?'
tRp1948
ag26
(g28
S' \x91\x08\xb0\x17\x0e\xee?'
tRp1949
asg1929
(lp1950
g26
(g28
S'!\nW@\x96\xec\xeb?'
tRp1951
ag26
(g28
S'\tSK\xb3\xdb\xbb\xd8?'
tRp1952
ag26
(g28
S'\x9f\xafx-`k\xd3?'
tRp1953
ag26
(g28
S'\xc1\x9c9\xde\x87\xe2\xcf?'
tRp1954
ag26
(g28
S'\x9a\xc6\xf7\x1f\xc6\xed\xca?'
tRp1955
asS'val_acc'
p1956
(lp1957
g26
(g28
S'\xd1\xcf\xe7\xf5\x18z\xea?'
tRp1958
ag26
(g28
S'29\x9d\x81\x84\xc2\xeb?'
tRp1959
ag26
(g28
S'\xd1I\x04\x87\x10\xe9\xeb?'
tRp1960
ag26
(g28
S'\\\x84\x85\xcd\x1fl\xec?'
tRp1961
ag26
(g28
S'"\x07l>5o\xec?'
tRp1962
asS'val_loss'
p1963
(lp1964
g26
(g28
S'\xb6\xba\x1d7K\x9c\xe2?'
tRp1965
ag26
(g28
S'\xce\x85\xe7[\xa5\x13\xdb?'
tRp1966
ag26
(g28
S'\xe4\x0e\x8b\x9a\xc0\x85\xdb?'
tRp1967
ag26
(g28
S'\x89\x1d[\x1d\xc7\xb2\xd8?'
tRp1968
ag26
(g28
S'\x8c\xe9Q\x1ct`\xd8?'
tRp1969
as(dp1970
S'verbose'
p1971
I1
sS'nb_epoch'
p1972
I5
sg1935
I256
sg1936
(lp1973
g1929
ag1943
aS'val_loss'
p1974
aS'val_acc'
p1975
asS'nb_sample'
p1976
I47812
sS'do_validation'
p1977
I01
sg26
(g28
S'\xd9iG$\x07\xa0\xd8?'
tRp1978
g26
(g28
S'\x9e\xab\x82_3^\xec?'
tRp1979
tp1980
a((dp1981
S'use_dropout'
p1982
I01
sS'use_batchnorm'
p1983
I01
sS'init'
p1984
S'glorot_normal'
p1985
sS'reg_factor'
p1986
F2.8871960303948362e-05
sS'dropout_param'
p1987
F0.11796357453501308
s(dp1988
S'loss'
p1989
S'categorical_crossentropy'
p1990
sS'optimizer'
p1991
S'sgd'
p1992
sS'decay'
p1993
F0.0070590098414431094
sS'nesterov'
p1994
I01
sS'batch_size'
p1995
I256
sS'metrics'
p1996
(lp1997
S'accuracy'
p1998
asS'lr'
p1999
F0.01024328655891331
sS'nb_epochs'
p2000
I5
sS'momentum'
p2001
F0.80527668118836671
s(dp2002
S'acc'
p2003
(lp2004
g26
(g28
S'\xc5\xcc\xd7\x84H\xa6\xe4?'
tRp2005
ag26
(g28
S'\xaf\x1dv%=\xa9\xea?'
tRp2006
ag26
(g28
S'9\x1b\xd9\xb7\xf8\x93\xeb?'
tRp2007
ag26
(g28
S'\x08\xfe\x1bU\x9a\xfa\xeb?'
tRp2008
ag26
(g28
S'\x94k\xb1D\xf88\xec?'
tRp2009
asg1989
(lp2010
g26
(g28
S'\xf6\xc5u\xe5\x1f\x86\xf2?'
tRp2011
ag26
(g28
S'6J\xa7\xcd\x03\xee\xe2?'
tRp2012
ag26
(g28
S'\xb1\xe4j\x11W\xb0\xdf?'
tRp2013
ag26
(g28
S'\x95\xa9\xb2\n\xe1\xb7\xdc?'
tRp2014
ag26
(g28
S'\x1f]DH\xda\xd9\xda?'
tRp2015
asS'val_acc'
p2016
(lp2017
g26
(g28
S'\x8fl\xf3\xe4t\x06\xea?'
tRp2018
ag26
(g28
S't\xd52\x011\xc7\xea?'
tRp2019
ag26
(g28
S'\x17\xaa\xb6\xb1\x16i\xeb?'
tRp2020
ag26
(g28
S'\r\xf4\xf7\x86\xc3\xa6\xeb?'
tRp2021
ag26
(g28
S'\x13\xbd\xac?\x9b\xea\xeb?'
tRp2022
asS'val_loss'
p2023
(lp2024
g26
(g28
S"\xf3\xcey\x80\xb8'\xe5?"
tRp2025
ag26
(g28
S'*\x94=b\x18\xe6\xe1?'
tRp2026
ag26
(g28
S'F\x0f\x83\x80<d\xdf?'
tRp2027
ag26
(g28
S'\x11\xe1\x01\xb9\x02\xfc\xdc?'
tRp2028
ag26
(g28
S"\x0f\x8f'K\xdf\xe8\xdb?"
tRp2029
as(dp2030
S'verbose'
p2031
I1
sS'nb_epoch'
p2032
I5
sg1995
I256
sg1996
(lp2033
g1989
ag2003
aS'val_loss'
p2034
aS'val_acc'
p2035
asS'nb_sample'
p2036
I47812
sS'do_validation'
p2037
I01
sg26
(g28
S'\xf1\xb8\xecB\xf8\xc6\xdc?'
tRp2038
g26
(g28
S'X=:\xefk\xc6\xeb?'
tRp2039
tp2040
a((dp2041
S'use_dropout'
p2042
I01
sS'use_batchnorm'
p2043
I01
sS'init'
p2044
S'glorot_normal'
p2045
sS'reg_factor'
p2046
F7.9439917038846033e-05
sS'dropout_param'
p2047
F0.18987473783569167
s(dp2048
S'loss'
p2049
S'categorical_crossentropy'
p2050
sS'optimizer'
p2051
S'sgd'
p2052
sS'decay'
p2053
F0.00019192872974025115
sS'nesterov'
p2054
I01
sS'batch_size'
p2055
I256
sS'metrics'
p2056
(lp2057
S'accuracy'
p2058
asS'lr'
p2059
F0.0051533950950063828
sS'nb_epochs'
p2060
I5
sS'momentum'
p2061
F0.964172769641651
s(dp2062
S'acc'
p2063
(lp2064
g26
(g28
S'\x10\xb5\x1a\x11\x82w\xe4?'
tRp2065
ag26
(g28
S'y\xac\xfbI"o\xeb?'
tRp2066
ag26
(g28
S'\x92\x05\xbc%~^\xec?'
tRp2067
ag26
(g28
S'\xe6\xaf[\xd7\xe7\xe7\xec?'
tRp2068
ag26
(g28
S'\xa1\x89\xc6JzR\xed?'
tRp2069
asg2049
(lp2070
g26
(g28
S'\x99~\xb9\xf3\x97S\xf2?'
tRp2071
ag26
(g28
S'Dl\x91\xfa3&\xe0?'
tRp2072
ag26
(g28
S'\xf7D,\x9d\xf2\x01\xda?'
tRp2073
ag26
(g28
S'R\xaf\xe6\xfd\x95\xa8\xd6?'
tRp2074
ag26
(g28
S'\xd7\x1e`XE&\xd4?'
tRp2075
asS'val_acc'
p2076
(lp2077
g26
(g28
S'\xf44\xf5\x9f\xcb\xfe\xe8?'
tRp2078
ag26
(g28
S'\xfd\xfeT\x1c:\xca\xeb?'
tRp2079
ag26
(g28
S'\x08\x95\xab\x97\xb4\\\xec?'
tRp2080
ag26
(g28
S'\xc4e\xc0g\xd5s\xec?'
tRp2081
ag26
(g28
S'\xa15g\xa2\xcc\xa9\xec?'
tRp2082
asS'val_loss'
p2083
(lp2084
g26
(g28
S'y\xbab\xdf\xa8\xc2\xe5?'
tRp2085
ag26
(g28
S'.\x07+c\xfcv\xdb?'
tRp2086
ag26
(g28
S'\xa7;\xaa\xd3(\xae\xd8?'
tRp2087
ag26
(g28
S'1\x8a\xcc\xcb\xbdW\xd7?'
tRp2088
ag26
(g28
S'\xe1\x05\x06CDn\xd7?'
tRp2089
as(dp2090
S'verbose'
p2091
I1
sS'nb_epoch'
p2092
I5
sg2055
I256
sg2056
(lp2093
g2049
ag2063
aS'val_loss'
p2094
aS'val_acc'
p2095
asS'nb_sample'
p2096
I47812
sS'do_validation'
p2097
I01
sg26
(g28
S'\x1f\xcfX>\xda\xfc\xd7?'
tRp2098
g26
(g28
S'\xa54m\x95}c\xec?'
tRp2099
tp2100
a((dp2101
S'use_dropout'
p2102
I01
sS'use_batchnorm'
p2103
I01
sS'init'
p2104
S'glorot_normal'
p2105
sS'reg_factor'
p2106
F6.6023483126625756e-05
sS'dropout_param'
p2107
F0.036644181345036109
s(dp2108
S'loss'
p2109
S'categorical_crossentropy'
p2110
sS'optimizer'
p2111
S'sgd'
p2112
sS'decay'
p2113
F0.0040969699264133373
sS'nesterov'
p2114
I01
sS'batch_size'
p2115
I256
sS'metrics'
p2116
(lp2117
S'accuracy'
p2118
asS'lr'
p2119
F0.091178595514514335
sS'nb_epochs'
p2120
I5
sS'momentum'
p2121
F0.85686607877423804
s(dp2122
S'acc'
p2123
(lp2124
g26
(g28
S'\xd1\x92\t\xb1\x96\xc4\xe5?'
tRp2125
ag26
(g28
S"\x85\xda\xb5\x05\xd6'\xec?"
tRp2126
ag26
(g28
S'\n\xec\xe3\xae:\x0c\xed?'
tRp2127
ag26
(g28
S'\x00\xaf\xa5(\xd4\xae\xed?'
tRp2128
ag26
(g28
S'\xbdLQ\xac\xd4\x16\xee?'
tRp2129
asg2109
(lp2130
g26
(g28
S'\x85\x8c\x0f\xbaC\x0b\xf0?'
tRp2131
ag26
(g28
S'\x97\xde\x97\xdd\xf4\x90\xdb?'
tRp2132
ag26
(g28
S'\x85\xcd\xc4\x8bm\x9b\xd5?'
tRp2133
ag26
(g28
S'\x7f1\xc9.\x81\x06\xd2?'
tRp2134
ag26
(g28
S'_\xf4\xce\x112\xc2\xce?'
tRp2135
asS'val_acc'
p2136
(lp2137
g26
(g28
S'h\x881\x9cLJ\xea?'
tRp2138
ag26
(g28
S'\xb8\x9a\xb5\xe7\x81x\xeb?'
tRp2139
ag26
(g28
S'/,+\xe0\xdc\x18\xec?'
tRp2140
ag26
(g28
S'\xe4\x06\xb1\x86]+\xec?'
tRp2141
ag26
(g28
S'm,\xe6\x97\xb4\\\xec?'
tRp2142
asS'val_loss'
p2143
(lp2144
g26
(g28
S'P\xc5A\xcb\xfbN\xe2?'
tRp2145
ag26
(g28
S'\xa7|%\xb6y\xec\xdc?'
tRp2146
ag26
(g28
S'\xb2\x8c\x98\xe2\x8d\xef\xd9?'
tRp2147
ag26
(g28
S'l\xba\xa3\xda\x8a\xc6\xd9?'
tRp2148
ag26
(g28
S'!\x95)\x01\xfcB\xd9?'
tRp2149
as(dp2150
S'verbose'
p2151
I1
sS'nb_epoch'
p2152
I5
sg2115
I256
sg2116
(lp2153
g2109
ag2123
aS'val_loss'
p2154
aS'val_acc'
p2155
asS'nb_sample'
p2156
I47812
sS'do_validation'
p2157
I01
sg26
(g28
S'\xd8\xf3\xd6\xce\x16?\xd9?'
tRp2158
g26
(g28
S'\xc0o\xf3\xbe4;\xec?'
tRp2159
tp2160
a((dp2161
S'use_dropout'
p2162
I01
sS'use_batchnorm'
p2163
I01
sS'init'
p2164
S'glorot_normal'
p2165
sS'reg_factor'
p2166
F1.948539059248101e-06
sS'dropout_param'
p2167
F0.027715256488930144
s(dp2168
S'loss'
p2169
S'categorical_crossentropy'
p2170
sS'optimizer'
p2171
S'sgd'
p2172
sS'decay'
p2173
F0.00074749996549361702
sS'nesterov'
p2174
I01
sS'batch_size'
p2175
I256
sS'metrics'
p2176
(lp2177
S'accuracy'
p2178
asS'lr'
p2179
F0.0050489795552966441
sS'nb_epochs'
p2180
I5
sS'momentum'
p2181
F0.96688419634876688
s(dp2182
S'acc'
p2183
(lp2184
g26
(g28
S'\x9e\xb8\x94@\xab\x04\xe6?'
tRp2185
ag26
(g28
S'o\x14&\x0e\xdb\xcc\xeb?'
tRp2186
ag26
(g28
S'\x00\xac\xf1Lx\xbf\xec?'
tRp2187
ag26
(g28
S'\xee\x9d\xd2\xd6\x7f_\xed?'
tRp2188
ag26
(g28
S'\xd2\xca\xa2\x1f\xb8\xdb\xed?'
tRp2189
asg2169
(lp2190
g26
(g28
S'\xe8\x89\xa9\x94\x8f1\xef?'
tRp2191
ag26
(g28
S'\xb3\x87@\xeblp\xdb?'
tRp2192
ag26
(g28
S'\xb0\x1a\xc2\xe9<c\xd5?'
tRp2193
ag26
(g28
S'\xcdR\xc6t3\x83\xd1?'
tRp2194
ag26
(g28
S'\x86\xc7\\t@5\xcd?'
tRp2195
asS'val_acc'
p2196
(lp2197
g26
(g28
S'C\n\xeb\x12;\xb6\xea?'
tRp2198
ag26
(g28
S'{\x10*\xb7\xef\xd1\xeb?'
tRp2199
ag26
(g28
S'e\x15D\xbb\xc8:\xec?'
tRp2200
ag26
(g28
S']\xf2\xda\xc0Ta\xec?'
tRp2201
ag26
(g28
S'(J=h\xd5s\xec?'
tRp2202
asS'val_loss'
p2203
(lp2204
g26
(g28
S']\xfa\xb4\x14\xcdp\xe1?'
tRp2205
ag26
(g28
S'3\xe4\x80-\xd0\x81\xdb?'
tRp2206
ag26
(g28
S'\xe4\x80\xcd\xf7#Y\xd9?'
tRp2207
ag26
(g28
S'!\x89b#\xa0\xf3\xd8?'
tRp2208
ag26
(g28
S'\xccl\xae\\\xc8o\xd8?'
tRp2209
as(dp2210
S'verbose'
p2211
I1
sS'nb_epoch'
p2212
I5
sg2175
I256
sg2176
(lp2213
g2169
ag2183
aS'val_loss'
p2214
aS'val_acc'
p2215
asS'nb_sample'
p2216
I47812
sS'do_validation'
p2217
I01
sg26
(g28
S'\xfb\xc0~\x84W\x92\xd8?'
tRp2218
g26
(g28
S'\x8f\xc8q\xcb\xc7h\xec?'
tRp2219
tp2220
a.